GAS LISTING /tmp/ccgcRiYw.s 			page 1


   1              		.file	"_sem.cpp"
   2              		.option pic
   3              		.option norelax
   4              		.text
   5              	.Ltext0:
   6              		.align	2
   7              		.globl	_ZN4_semC2Ej
   9              	_ZN4_semC2Ej:
  10              	.LFB23:
  11              		.file 1 "src/_sem.cpp"
   1:src/_sem.cpp  **** #include "../h/_sem.hpp"
   2:src/_sem.cpp  **** 
   3:src/_sem.cpp  **** _sem::_sem(unsigned value) {
  12              		.loc 1 3 1
  13              		.cfi_startproc
  14              	.LVL0:
  15 0000 130101FF 		addi	sp,sp,-16
  16              		.cfi_def_cfa_offset 16
  17 0004 23348100 		sd	s0,8(sp)
  18              		.cfi_offset 8, -8
  19 0008 13040101 		addi	s0,sp,16
  20              		.cfi_def_cfa 8, 0
  21              	.LVL1:
  22              	.LBB25:
  23              	.LBB26:
  24              	.LBB27:
  25              		.file 2 "src/../h/list.hpp"
   1:src/../h/list.hpp **** #ifndef LIST_HPP
   2:src/../h/list.hpp **** #define LIST_HPP
   3:src/../h/list.hpp **** 
   4:src/../h/list.hpp **** #include "../lib/mem.h"
   5:src/../h/list.hpp **** 
   6:src/../h/list.hpp **** template<typename T>
   7:src/../h/list.hpp **** class List
   8:src/../h/list.hpp **** {
   9:src/../h/list.hpp **** private:
  10:src/../h/list.hpp ****     struct Elem
  11:src/../h/list.hpp ****     {
  12:src/../h/list.hpp ****         T *data;
  13:src/../h/list.hpp ****         Elem *next;
  14:src/../h/list.hpp **** 
  15:src/../h/list.hpp ****         Elem(T *data, Elem *next) : data(data), next(next) {}
  16:src/../h/list.hpp ****     };
  17:src/../h/list.hpp **** 
  18:src/../h/list.hpp ****     Elem *head, *tail;
  19:src/../h/list.hpp **** 
  20:src/../h/list.hpp ****     void *operator new(size_t size) { return __mem_alloc(size); }
  21:src/../h/list.hpp ****     void operator delete(void *ptr) { __mem_free(ptr); }
  22:src/../h/list.hpp **** 
  23:src/../h/list.hpp **** public:
  24:src/../h/list.hpp ****     List() : head(0), tail(0) {}
  26              		.loc 2 24 29 is_stmt 0
  27 000c 23340500 		sd	zero,8(a0)
  28 0010 23380500 		sd	zero,16(a0)
  29              	.LVL2:
  30              	.LBE27:
  31              	.LBE26:
GAS LISTING /tmp/ccgcRiYw.s 			page 2


   4:src/_sem.cpp  ****     this->value = (int)value;
  32              		.loc 1 4 5 is_stmt 1
  33              		.loc 1 4 17 is_stmt 0
  34 0014 2320B500 		sw	a1,0(a0)
   5:src/_sem.cpp  ****     this->closed = 0;
  35              		.loc 1 5 5 is_stmt 1
  36              		.loc 1 5 18 is_stmt 0
  37 0018 232C0500 		sw	zero,24(a0)
  38              	.LBE25:
   6:src/_sem.cpp  **** }
  39              		.loc 1 6 1
  40 001c 03348100 		ld	s0,8(sp)
  41              		.cfi_restore 8
  42              		.cfi_def_cfa 2, 16
  43 0020 13010101 		addi	sp,sp,16
  44              		.cfi_def_cfa_offset 0
  45 0024 67800000 		jr	ra
  46              		.cfi_endproc
  47              	.LFE23:
  49              		.globl	_ZN4_semC1Ej
  50              		.set	_ZN4_semC1Ej,_ZN4_semC2Ej
  51              		.align	2
  52              		.globl	_ZN4_semD2Ev
  54              	_ZN4_semD2Ev:
  55              	.LFB26:
   7:src/_sem.cpp  **** 
   8:src/_sem.cpp  **** _sem::~_sem() {
  56              		.loc 1 8 1 is_stmt 1
  57              		.cfi_startproc
  58              		.cfi_personality 0x9b,DW.ref.__gxx_personality_v0
  59              		.cfi_lsda 0x1b,.LLSDA26
  60              	.LVL3:
  61 0028 130101FE 		addi	sp,sp,-32
  62              		.cfi_def_cfa_offset 32
  63 002c 233C1100 		sd	ra,24(sp)
  64 0030 23388100 		sd	s0,16(sp)
  65 0034 23349100 		sd	s1,8(sp)
  66 0038 23302101 		sd	s2,0(sp)
  67              		.cfi_offset 1, -8
  68              		.cfi_offset 8, -16
  69              		.cfi_offset 9, -24
  70              		.cfi_offset 18, -32
  71 003c 13040102 		addi	s0,sp,32
  72              		.cfi_def_cfa 8, 0
  73 0040 93040500 		mv	s1,a0
  74              	.LBB28:
   9:src/_sem.cpp  ****     closed = 1;
  75              		.loc 1 9 5
  76              		.loc 1 9 12 is_stmt 0
  77 0044 93071000 		li	a5,1
  78 0048 232CF500 		sw	a5,24(a0)
  79 004c 6F008002 		j	.L6
  80              	.LVL4:
  81              	.L8:
  82              	.LBB29:
  83              	.LBB30:
  84              	.LBB31:
GAS LISTING /tmp/ccgcRiYw.s 			page 3


  25:src/../h/list.hpp **** 
  26:src/../h/list.hpp ****     List(const List<T> &) = delete;
  27:src/../h/list.hpp **** 
  28:src/../h/list.hpp ****     List<T> &operator=(const List<T> &) = delete;
  29:src/../h/list.hpp **** 
  30:src/../h/list.hpp ****     void addFirst(T *data)
  31:src/../h/list.hpp ****     {
  32:src/../h/list.hpp ****         Elem *elem = new Elem(data, head);
  33:src/../h/list.hpp ****         head = elem;
  34:src/../h/list.hpp ****         if (!tail) { tail = head; }
  35:src/../h/list.hpp ****     }
  36:src/../h/list.hpp **** 
  37:src/../h/list.hpp ****     void addLast(T *data)
  38:src/../h/list.hpp ****     {
  39:src/../h/list.hpp ****         Elem *elem = new Elem(data, 0);
  40:src/../h/list.hpp **** 
  41:src/../h/list.hpp ****         if (tail)
  42:src/../h/list.hpp ****         {
  43:src/../h/list.hpp ****             tail->next = elem;
  44:src/../h/list.hpp ****             tail = elem;
  45:src/../h/list.hpp ****         } else
  46:src/../h/list.hpp ****         {
  47:src/../h/list.hpp ****             head = tail = elem;
  48:src/../h/list.hpp ****         }
  49:src/../h/list.hpp ****     }
  50:src/../h/list.hpp **** 
  51:src/../h/list.hpp ****     T *removeFirst()
  52:src/../h/list.hpp ****     {
  53:src/../h/list.hpp ****         if (!head) { return 0; }
  54:src/../h/list.hpp **** 
  55:src/../h/list.hpp ****         Elem *elem = head;
  56:src/../h/list.hpp ****         head = head->next;
  57:src/../h/list.hpp ****         if (!head) { tail = 0; }
  85              		.loc 2 57 22
  86 0050 23B80400 		sd	zero,16(s1)
  87              	.L5:
  58:src/../h/list.hpp **** 
  59:src/../h/list.hpp ****         T *ret = elem->data;
  88              		.loc 2 59 12
  89 0054 03390500 		ld	s2,0(a0)
  90              	.LVL5:
  60:src/../h/list.hpp ****         delete elem;
  91              		.loc 2 60 9
  92 0058 97000000 		call	_ZdlPv@plt
  92      E7800000 
  93              	.LVL6:
  94              	.LBE31:
  95              	.LBE30:
  10:src/_sem.cpp  ****     while(this->blockedThreads.peekFirst()) {
  11:src/_sem.cpp  ****         TCB* thread = this->blockedThreads.removeFirst();
  12:src/_sem.cpp  ****         thread->state = TCB::READY;
  96              		.loc 1 12 9 is_stmt 1
  97              		.loc 1 12 23 is_stmt 0
  98 0060 93071000 		li	a5,1
  99 0064 232CF902 		sw	a5,56(s2)
  13:src/_sem.cpp  ****         Scheduler::put(thread);
 100              		.loc 1 13 9 is_stmt 1
GAS LISTING /tmp/ccgcRiYw.s 			page 4


 101              		.loc 1 13 23 is_stmt 0
 102 0068 13050900 		mv	a0,s2
 103 006c 97000000 		call	_ZN9Scheduler3putEP3TCB@plt
 103      E7800000 
 104              	.LVL7:
 105              	.L6:
 106              	.LBE29:
  10:src/_sem.cpp  ****     while(this->blockedThreads.peekFirst()) {
 107              		.loc 1 10 5 is_stmt 1
  10:src/_sem.cpp  ****     while(this->blockedThreads.peekFirst()) {
 108              		.loc 1 10 42
 109              	.LBB34:
 110              	.LBB35:
  61:src/../h/list.hpp ****         return ret;
  62:src/../h/list.hpp ****     }
  63:src/../h/list.hpp **** 
  64:src/../h/list.hpp ****     T *peekFirst()
  65:src/../h/list.hpp ****     {
  66:src/../h/list.hpp ****         if (!head) { return 0; }
 111              		.loc 2 66 14 is_stmt 0
 112 0074 03B58400 		ld	a0,8(s1)
 113              		.loc 2 66 9
 114 0078 630E0500 		beqz	a0,.L3
  67:src/../h/list.hpp ****         return head->data;
 115              		.loc 2 67 22
 116 007c 83370500 		ld	a5,0(a0)
 117              	.LVL8:
 118              	.LBE35:
 119              	.LBE34:
  10:src/_sem.cpp  ****         TCB* thread = this->blockedThreads.removeFirst();
 120              		.loc 1 10 42
 121 0080 638A0700 		beqz	a5,.L3
 122              	.LBB36:
  11:src/_sem.cpp  ****         thread->state = TCB::READY;
 123              		.loc 1 11 9 is_stmt 1
 124              	.LVL9:
 125              	.LBB33:
 126              	.LBB32:
  56:src/../h/list.hpp ****         if (!head) { tail = 0; }
 127              		.loc 2 56 22 is_stmt 0
 128 0084 83378500 		ld	a5,8(a0)
  56:src/../h/list.hpp ****         if (!head) { tail = 0; }
 129              		.loc 2 56 9
 130 0088 23B4F400 		sd	a5,8(s1)
  57:src/../h/list.hpp **** 
 131              		.loc 2 57 9
 132 008c E39407FC 		bnez	a5,.L5
 133 0090 6FF01FFC 		j	.L8
 134              	.LVL10:
 135              	.L3:
 136              	.LBE32:
 137              	.LBE33:
 138              	.LBE36:
 139              	.LBE28:
  14:src/_sem.cpp  ****     }
  15:src/_sem.cpp  **** }
 140              		.loc 1 15 1
GAS LISTING /tmp/ccgcRiYw.s 			page 5


 141 0094 83308101 		ld	ra,24(sp)
 142              		.cfi_restore 1
 143 0098 03340101 		ld	s0,16(sp)
 144              		.cfi_restore 8
 145              		.cfi_def_cfa 2, 32
 146 009c 83348100 		ld	s1,8(sp)
 147              		.cfi_restore 9
 148              	.LVL11:
 149 00a0 03390100 		ld	s2,0(sp)
 150              		.cfi_restore 18
 151 00a4 13010102 		addi	sp,sp,32
 152              		.cfi_def_cfa_offset 0
 153 00a8 67800000 		jr	ra
 154              		.cfi_endproc
 155              	.LFE26:
 156              		.globl	__gxx_personality_v0
 157              		.section	.gcc_except_table,"a",@progbits
 158              	.LLSDA26:
 159 0000 FF       		.byte	0xff
 160 0001 FF       		.byte	0xff
 161 0002 03       		.byte	0x3
 162 0003 00       		.byte	0
 163              		.text
 165              		.globl	_ZN4_semD1Ev
 166              		.set	_ZN4_semD1Ev,_ZN4_semD2Ev
 167              		.align	2
 168              		.globl	_ZN4_sem6signalEv
 170              	_ZN4_sem6signalEv:
 171              	.LFB28:
  16:src/_sem.cpp  **** 
  17:src/_sem.cpp  **** int _sem::signal() {
 172              		.loc 1 17 20 is_stmt 1
 173              		.cfi_startproc
 174              	.LVL12:
  18:src/_sem.cpp  ****     if(closed == 1) return -1;
 175              		.loc 1 18 5
 176              		.loc 1 18 8 is_stmt 0
 177 00ac 83268501 		lw	a3,24(a0)
 178              		.loc 1 18 5
 179 00b0 13071000 		li	a4,1
 180 00b4 638AE608 		beq	a3,a4,.L13
 181 00b8 93070500 		mv	a5,a0
  19:src/_sem.cpp  ****     if(++value <= 0) {
 182              		.loc 1 19 5 is_stmt 1
 183              	.LBB37:
 184              		.loc 1 19 10 is_stmt 0
 185 00bc 03270500 		lw	a4,0(a0)
 186              		.loc 1 19 8
 187 00c0 1B071700 		addiw	a4,a4,1
 188 00c4 9B060700 		sext.w	a3,a4
 189              		.loc 1 19 16
 190 00c8 2320E500 		sw	a4,0(a0)
 191              		.loc 1 19 5
 192 00cc 6356D000 		blez	a3,.L20
 193              	.LBE37:
  20:src/_sem.cpp  ****         TCB* thread = this->blockedThreads.removeFirst();
  21:src/_sem.cpp  ****         thread->state = TCB::READY;
GAS LISTING /tmp/ccgcRiYw.s 			page 6


  22:src/_sem.cpp  ****         Scheduler::put(thread);
  23:src/_sem.cpp  ****     }
  24:src/_sem.cpp  ****     return 0;
 194              		.loc 1 24 12
 195 00d0 13050000 		li	a0,0
 196              	.LVL13:
  25:src/_sem.cpp  **** }
 197              		.loc 1 25 1
 198 00d4 67800000 		ret
 199              	.LVL14:
 200              	.L20:
  17:src/_sem.cpp  ****     if(closed == 1) return -1;
 201              		.loc 1 17 20
 202 00d8 130101FE 		addi	sp,sp,-32
 203              		.cfi_def_cfa_offset 32
 204 00dc 233C1100 		sd	ra,24(sp)
 205 00e0 23388100 		sd	s0,16(sp)
 206 00e4 23349100 		sd	s1,8(sp)
 207              		.cfi_offset 1, -8
 208              		.cfi_offset 8, -16
 209              		.cfi_offset 9, -24
 210 00e8 13040102 		addi	s0,sp,32
 211              		.cfi_def_cfa 8, 0
 212              	.LBB44:
 213              	.LBB38:
  20:src/_sem.cpp  ****         TCB* thread = this->blockedThreads.removeFirst();
 214              		.loc 1 20 9 is_stmt 1
 215              	.LVL15:
 216              	.LBB39:
 217              	.LBB40:
  53:src/../h/list.hpp **** 
 218              		.loc 2 53 14 is_stmt 0
 219 00ec 03358500 		ld	a0,8(a0)
 220              	.LVL16:
  53:src/../h/list.hpp **** 
 221              		.loc 2 53 9
 222 00f0 63080504 		beqz	a0,.L15
 223              	.LVL17:
  56:src/../h/list.hpp ****         if (!head) { tail = 0; }
 224              		.loc 2 56 22
 225 00f4 03378500 		ld	a4,8(a0)
  56:src/../h/list.hpp ****         if (!head) { tail = 0; }
 226              		.loc 2 56 9
 227 00f8 23B4E700 		sd	a4,8(a5)
  57:src/../h/list.hpp **** 
 228              		.loc 2 57 9
 229 00fc 630E0702 		beqz	a4,.L21
 230              	.L12:
  59:src/../h/list.hpp ****         delete elem;
 231              		.loc 2 59 12
 232 0100 83340500 		ld	s1,0(a0)
 233              	.LVL18:
  60:src/../h/list.hpp ****         return ret;
 234              		.loc 2 60 9
 235 0104 97000000 		call	_ZdlPv@plt
 235      E7800000 
 236              	.LVL19:
GAS LISTING /tmp/ccgcRiYw.s 			page 7


 237              	.L11:
 238              	.LBE40:
 239              	.LBE39:
  21:src/_sem.cpp  ****         Scheduler::put(thread);
 240              		.loc 1 21 9 is_stmt 1
  21:src/_sem.cpp  ****         Scheduler::put(thread);
 241              		.loc 1 21 23 is_stmt 0
 242 010c 93071000 		li	a5,1
 243 0110 23ACF402 		sw	a5,56(s1)
  22:src/_sem.cpp  ****     }
 244              		.loc 1 22 9 is_stmt 1
  22:src/_sem.cpp  ****     }
 245              		.loc 1 22 23 is_stmt 0
 246 0114 13850400 		mv	a0,s1
 247 0118 97000000 		call	_ZN9Scheduler3putEP3TCB@plt
 247      E7800000 
 248              	.LVL20:
 249              	.LBE38:
 250              	.LBE44:
  24:src/_sem.cpp  **** }
 251              		.loc 1 24 12
 252 0120 13050000 		li	a0,0
 253              		.loc 1 25 1
 254 0124 83308101 		ld	ra,24(sp)
 255              		.cfi_remember_state
 256              		.cfi_restore 1
 257 0128 03340101 		ld	s0,16(sp)
 258              		.cfi_restore 8
 259              		.cfi_def_cfa 2, 32
 260 012c 83348100 		ld	s1,8(sp)
 261              		.cfi_restore 9
 262              	.LVL21:
 263 0130 13010102 		addi	sp,sp,32
 264              		.cfi_def_cfa_offset 0
 265 0134 67800000 		jr	ra
 266              	.LVL22:
 267              	.L21:
 268              		.cfi_restore_state
 269              	.LBB45:
 270              	.LBB43:
 271              	.LBB42:
 272              	.LBB41:
  57:src/../h/list.hpp **** 
 273              		.loc 2 57 22
 274 0138 23B80700 		sd	zero,16(a5)
 275 013c 6FF05FFC 		j	.L12
 276              	.LVL23:
 277              	.L15:
  53:src/../h/list.hpp **** 
 278              		.loc 2 53 29
 279 0140 93040500 		mv	s1,a0
 280 0144 6FF09FFC 		j	.L11
 281              	.LVL24:
 282              	.L13:
 283              		.cfi_def_cfa_register 2
 284              		.cfi_restore 1
 285              		.cfi_restore 8
GAS LISTING /tmp/ccgcRiYw.s 			page 8


 286              		.cfi_restore 9
 287              	.LBE41:
 288              	.LBE42:
 289              	.LBE43:
 290              	.LBE45:
  18:src/_sem.cpp  ****     if(++value <= 0) {
 291              		.loc 1 18 29
 292 0148 1305F0FF 		li	a0,-1
 293              	.LVL25:
 294 014c 67800000 		ret
 295              		.cfi_endproc
 296              	.LFE28:
 298              		.align	2
 299              		.globl	_ZN4_sem4waitEv
 301              	_ZN4_sem4waitEv:
 302              	.LFB29:
  26:src/_sem.cpp  **** 
  27:src/_sem.cpp  **** int _sem::wait() {
 303              		.loc 1 27 18 is_stmt 1
 304              		.cfi_startproc
 305              	.LVL26:
  28:src/_sem.cpp  ****     if(closed == 1) return -1;
 306              		.loc 1 28 5
 307              		.loc 1 28 8 is_stmt 0
 308 0150 03278501 		lw	a4,24(a0)
 309              		.loc 1 28 5
 310 0154 93071000 		li	a5,1
 311 0158 630CF70A 		beq	a4,a5,.L27
  27:src/_sem.cpp  ****     if(closed == 1) return -1;
 312              		.loc 1 27 18
 313 015c 130101FE 		addi	sp,sp,-32
 314              		.cfi_def_cfa_offset 32
 315 0160 233C1100 		sd	ra,24(sp)
 316 0164 23388100 		sd	s0,16(sp)
 317 0168 23349100 		sd	s1,8(sp)
 318 016c 23302101 		sd	s2,0(sp)
 319              		.cfi_offset 1, -8
 320              		.cfi_offset 8, -16
 321              		.cfi_offset 9, -24
 322              		.cfi_offset 18, -32
 323 0170 13040102 		addi	s0,sp,32
 324              		.cfi_def_cfa 8, 0
 325 0174 93040500 		mv	s1,a0
  29:src/_sem.cpp  ****     if(--value < 0) {
 326              		.loc 1 29 5 is_stmt 1
 327              		.loc 1 29 10 is_stmt 0
 328 0178 83270500 		lw	a5,0(a0)
 329              		.loc 1 29 8
 330 017c 9B87F7FF 		addiw	a5,a5,-1
 331              		.loc 1 29 16
 332 0180 2320F500 		sw	a5,0(a0)
 333              		.loc 1 29 5
 334 0184 13970702 		slli	a4,a5,32
 335 0188 63420702 		bltz	a4,.L32
 336              	.LVL27:
 337              	.L24:
  30:src/_sem.cpp  ****         this->blockedThreads.addLast(TCB::running);
GAS LISTING /tmp/ccgcRiYw.s 			page 9


  31:src/_sem.cpp  ****         TCB::running->state = TCB::BLOCKED;
  32:src/_sem.cpp  ****         TCB::dispatch();
  33:src/_sem.cpp  ****     }
  34:src/_sem.cpp  ****     if (closed == 0) return 0;
 338              		.loc 1 34 5 is_stmt 1
 339              		.loc 1 34 9 is_stmt 0
 340 018c 03A58401 		lw	a0,24(s1)
 341              		.loc 1 34 5
 342 0190 631C0506 		bnez	a0,.L33
 343              	.L23:
  35:src/_sem.cpp  ****     return -1;
  36:src/_sem.cpp  **** }
 344              		.loc 1 36 1
 345 0194 83308101 		ld	ra,24(sp)
 346              		.cfi_remember_state
 347              		.cfi_restore 1
 348 0198 03340101 		ld	s0,16(sp)
 349              		.cfi_restore 8
 350              		.cfi_def_cfa 2, 32
 351 019c 83348100 		ld	s1,8(sp)
 352              		.cfi_restore 9
 353              	.LVL28:
 354 01a0 03390100 		ld	s2,0(sp)
 355              		.cfi_restore 18
 356 01a4 13010102 		addi	sp,sp,32
 357              		.cfi_def_cfa_offset 0
 358 01a8 67800000 		jr	ra
 359              	.LVL29:
 360              	.L32:
 361              		.cfi_restore_state
  30:src/_sem.cpp  ****         this->blockedThreads.addLast(TCB::running);
 362              		.loc 1 30 9 is_stmt 1
  30:src/_sem.cpp  ****         this->blockedThreads.addLast(TCB::running);
 363              		.loc 1 30 37 is_stmt 0
 364 01ac 97070000 		la	a5,_ZN3TCB7runningE
 364      83B70700 
 365 01b4 03B90700 		ld	s2,0(a5)
 366              	.LVL30:
 367              	.LBB46:
 368              	.LBB47:
  39:src/../h/list.hpp **** 
 369              		.loc 2 39 22
 370 01b8 13050001 		li	a0,16
 371 01bc 97000000 		call	_Znwm@plt
 371      E7800000 
 372              	.LVL31:
 373              	.LBB48:
 374              	.LBB49:
  15:src/../h/list.hpp ****     };
 375              		.loc 2 15 58
 376 01c4 23302501 		sd	s2,0(a0)
 377 01c8 23340500 		sd	zero,8(a0)
 378              	.LVL32:
 379              	.LBE49:
 380              	.LBE48:
  41:src/../h/list.hpp ****         {
 381              		.loc 2 41 13
GAS LISTING /tmp/ccgcRiYw.s 			page 10


 382 01cc 83B70401 		ld	a5,16(s1)
  41:src/../h/list.hpp ****         {
 383              		.loc 2 41 9
 384 01d0 63860702 		beqz	a5,.L25
  43:src/../h/list.hpp ****             tail = elem;
 385              		.loc 2 43 13
 386 01d4 23B4A700 		sd	a0,8(a5)
  44:src/../h/list.hpp ****         } else
 387              		.loc 2 44 13
 388 01d8 23B8A400 		sd	a0,16(s1)
 389              	.L26:
 390              	.LVL33:
 391              	.LBE47:
 392              	.LBE46:
  31:src/_sem.cpp  ****         TCB::dispatch();
 393              		.loc 1 31 9 is_stmt 1
  31:src/_sem.cpp  ****         TCB::dispatch();
 394              		.loc 1 31 23 is_stmt 0
 395 01dc 97070000 		la	a5,_ZN3TCB7runningE
 395      83B70700 
 396 01e4 83B70700 		ld	a5,0(a5)
  31:src/_sem.cpp  ****         TCB::dispatch();
 397              		.loc 1 31 29
 398 01e8 13073000 		li	a4,3
 399 01ec 23ACE702 		sw	a4,56(a5)
  32:src/_sem.cpp  ****     }
 400              		.loc 1 32 9 is_stmt 1
  32:src/_sem.cpp  ****     }
 401              		.loc 1 32 22 is_stmt 0
 402 01f0 97000000 		call	_ZN3TCB8dispatchEv@plt
 402      E7800000 
 403              	.LVL34:
 404 01f8 6FF05FF9 		j	.L24
 405              	.LVL35:
 406              	.L25:
 407              	.LBB51:
 408              	.LBB50:
  47:src/../h/list.hpp ****         }
 409              		.loc 2 47 13
 410 01fc 23B8A400 		sd	a0,16(s1)
 411 0200 23B4A400 		sd	a0,8(s1)
 412 0204 6FF09FFD 		j	.L26
 413              	.LVL36:
 414              	.L33:
 415              	.LBE50:
 416              	.LBE51:
  35:src/_sem.cpp  **** }
 417              		.loc 1 35 13
 418 0208 1305F0FF 		li	a0,-1
 419 020c 6FF09FF8 		j	.L23
 420              	.LVL37:
 421              	.L27:
 422              		.cfi_def_cfa_register 2
 423              		.cfi_restore 1
 424              		.cfi_restore 8
 425              		.cfi_restore 9
 426              		.cfi_restore 18
GAS LISTING /tmp/ccgcRiYw.s 			page 11


  28:src/_sem.cpp  ****     if(--value < 0) {
 427              		.loc 1 28 29
 428 0210 1305F0FF 		li	a0,-1
 429              	.LVL38:
 430              		.loc 1 36 1
 431 0214 67800000 		ret
 432              		.cfi_endproc
 433              	.LFE29:
 435              	.Letext0:
 436              		.file 3 "src/../h/../lib/hw.h"
 437              		.file 4 "src/../h/scheduler.hpp"
 438              		.file 5 "src/../h/tcb.hpp"
 439              		.file 6 "src/../h/_sem.hpp"
 3277              		.align	3
 3280              	DW.ref.__gxx_personality_v0:
 3281 0000 00000000 		.dword	__gxx_personality_v0
 3281      00000000 
 3282              		.ident	"GCC: (Ubuntu 9.4.0-1ubuntu1~20.04) 9.4.0"
 3283              		.section	.note.GNU-stack,"",@progbits
GAS LISTING /tmp/ccgcRiYw.s 			page 12


DEFINED SYMBOLS
                            *ABS*:0000000000000000 _sem.cpp
     /tmp/ccgcRiYw.s:9      .text:0000000000000000 _ZN4_semC2Ej
     /tmp/ccgcRiYw.s:13     .text:0000000000000000 .L0 
     /tmp/ccgcRiYw.s:15     .text:0000000000000000 .L0 
     /tmp/ccgcRiYw.s:16     .text:0000000000000004 .L0 
     /tmp/ccgcRiYw.s:18     .text:0000000000000008 .L0 
     /tmp/ccgcRiYw.s:20     .text:000000000000000c .L0 
     /tmp/ccgcRiYw.s:27     .text:000000000000000c .L0 
     /tmp/ccgcRiYw.s:33     .text:0000000000000014 .L0 
     /tmp/ccgcRiYw.s:34     .text:0000000000000014 .L0 
     /tmp/ccgcRiYw.s:36     .text:0000000000000018 .L0 
     /tmp/ccgcRiYw.s:37     .text:0000000000000018 .L0 
     /tmp/ccgcRiYw.s:40     .text:000000000000001c .L0 
     /tmp/ccgcRiYw.s:41     .text:0000000000000020 .L0 
     /tmp/ccgcRiYw.s:42     .text:0000000000000020 .L0 
     /tmp/ccgcRiYw.s:44     .text:0000000000000024 .L0 
     /tmp/ccgcRiYw.s:46     .text:0000000000000028 .L0 
     /tmp/ccgcRiYw.s:9      .text:0000000000000000 _ZN4_semC1Ej
     /tmp/ccgcRiYw.s:54     .text:0000000000000028 _ZN4_semD2Ev
     /tmp/ccgcRiYw.s:57     .text:0000000000000028 .L0 
     /tmp/ccgcRiYw.s:3280   .data.rel.local.DW.ref.__gxx_personality_v0:0000000000000000 DW.ref.__gxx_personality_v0
     /tmp/ccgcRiYw.s:61     .text:0000000000000028 .L0 
     /tmp/ccgcRiYw.s:62     .text:000000000000002c .L0 
     /tmp/ccgcRiYw.s:67     .text:000000000000003c .L0 
     /tmp/ccgcRiYw.s:68     .text:000000000000003c .L0 
     /tmp/ccgcRiYw.s:69     .text:000000000000003c .L0 
     /tmp/ccgcRiYw.s:70     .text:000000000000003c .L0 
     /tmp/ccgcRiYw.s:72     .text:0000000000000040 .L0 
     /tmp/ccgcRiYw.s:76     .text:0000000000000044 .L0 
     /tmp/ccgcRiYw.s:77     .text:0000000000000044 .L0 
     /tmp/ccgcRiYw.s:86     .text:0000000000000050 .L0 
     /tmp/ccgcRiYw.s:89     .text:0000000000000054 .L0 
     /tmp/ccgcRiYw.s:92     .text:0000000000000058 .L0 
     /tmp/ccgcRiYw.s:97     .text:0000000000000060 .L0 
     /tmp/ccgcRiYw.s:98     .text:0000000000000060 .L0 
     /tmp/ccgcRiYw.s:101    .text:0000000000000068 .L0 
     /tmp/ccgcRiYw.s:102    .text:0000000000000068 .L0 
     /tmp/ccgcRiYw.s:108    .text:0000000000000074 .L0 
     /tmp/ccgcRiYw.s:111    .text:0000000000000074 .L0 
     /tmp/ccgcRiYw.s:112    .text:0000000000000074 .L0 
     /tmp/ccgcRiYw.s:114    .text:0000000000000078 .L0 
     /tmp/ccgcRiYw.s:116    .text:000000000000007c .L0 
     /tmp/ccgcRiYw.s:121    .text:0000000000000080 .L0 
     /tmp/ccgcRiYw.s:127    .text:0000000000000084 .L0 
     /tmp/ccgcRiYw.s:128    .text:0000000000000084 .L0 
     /tmp/ccgcRiYw.s:130    .text:0000000000000088 .L0 
     /tmp/ccgcRiYw.s:132    .text:000000000000008c .L0 
     /tmp/ccgcRiYw.s:141    .text:0000000000000094 .L0 
     /tmp/ccgcRiYw.s:142    .text:0000000000000098 .L0 
     /tmp/ccgcRiYw.s:144    .text:000000000000009c .L0 
     /tmp/ccgcRiYw.s:145    .text:000000000000009c .L0 
     /tmp/ccgcRiYw.s:147    .text:00000000000000a0 .L0 
     /tmp/ccgcRiYw.s:150    .text:00000000000000a4 .L0 
     /tmp/ccgcRiYw.s:152    .text:00000000000000a8 .L0 
     /tmp/ccgcRiYw.s:154    .text:00000000000000ac .L0 
     /tmp/ccgcRiYw.s:54     .text:0000000000000028 _ZN4_semD1Ev
GAS LISTING /tmp/ccgcRiYw.s 			page 13


     /tmp/ccgcRiYw.s:170    .text:00000000000000ac _ZN4_sem6signalEv
     /tmp/ccgcRiYw.s:173    .text:00000000000000ac .L0 
     /tmp/ccgcRiYw.s:175    .text:00000000000000ac .L0 
     /tmp/ccgcRiYw.s:176    .text:00000000000000ac .L0 
     /tmp/ccgcRiYw.s:177    .text:00000000000000ac .L0 
     /tmp/ccgcRiYw.s:179    .text:00000000000000b0 .L0 
     /tmp/ccgcRiYw.s:184    .text:00000000000000bc .L0 
     /tmp/ccgcRiYw.s:185    .text:00000000000000bc .L0 
     /tmp/ccgcRiYw.s:187    .text:00000000000000c0 .L0 
     /tmp/ccgcRiYw.s:190    .text:00000000000000c8 .L0 
     /tmp/ccgcRiYw.s:192    .text:00000000000000cc .L0 
     /tmp/ccgcRiYw.s:195    .text:00000000000000d0 .L0 
     /tmp/ccgcRiYw.s:198    .text:00000000000000d4 .L0 
     /tmp/ccgcRiYw.s:202    .text:00000000000000d8 .L0 
     /tmp/ccgcRiYw.s:203    .text:00000000000000dc .L0 
     /tmp/ccgcRiYw.s:207    .text:00000000000000e8 .L0 
     /tmp/ccgcRiYw.s:208    .text:00000000000000e8 .L0 
     /tmp/ccgcRiYw.s:209    .text:00000000000000e8 .L0 
     /tmp/ccgcRiYw.s:211    .text:00000000000000ec .L0 
     /tmp/ccgcRiYw.s:218    .text:00000000000000ec .L0 
     /tmp/ccgcRiYw.s:219    .text:00000000000000ec .L0 
     /tmp/ccgcRiYw.s:222    .text:00000000000000f0 .L0 
     /tmp/ccgcRiYw.s:225    .text:00000000000000f4 .L0 
     /tmp/ccgcRiYw.s:227    .text:00000000000000f8 .L0 
     /tmp/ccgcRiYw.s:229    .text:00000000000000fc .L0 
     /tmp/ccgcRiYw.s:232    .text:0000000000000100 .L0 
     /tmp/ccgcRiYw.s:235    .text:0000000000000104 .L0 
     /tmp/ccgcRiYw.s:241    .text:000000000000010c .L0 
     /tmp/ccgcRiYw.s:242    .text:000000000000010c .L0 
     /tmp/ccgcRiYw.s:245    .text:0000000000000114 .L0 
     /tmp/ccgcRiYw.s:246    .text:0000000000000114 .L0 
     /tmp/ccgcRiYw.s:252    .text:0000000000000120 .L0 
     /tmp/ccgcRiYw.s:254    .text:0000000000000124 .L0 
     /tmp/ccgcRiYw.s:255    .text:0000000000000128 .L0 
     /tmp/ccgcRiYw.s:256    .text:0000000000000128 .L0 
     /tmp/ccgcRiYw.s:258    .text:000000000000012c .L0 
     /tmp/ccgcRiYw.s:259    .text:000000000000012c .L0 
     /tmp/ccgcRiYw.s:261    .text:0000000000000130 .L0 
     /tmp/ccgcRiYw.s:264    .text:0000000000000134 .L0 
     /tmp/ccgcRiYw.s:268    .text:0000000000000138 .L0 
     /tmp/ccgcRiYw.s:274    .text:0000000000000138 .L0 
     /tmp/ccgcRiYw.s:279    .text:0000000000000140 .L0 
     /tmp/ccgcRiYw.s:283    .text:0000000000000148 .L0 
     /tmp/ccgcRiYw.s:284    .text:0000000000000148 .L0 
     /tmp/ccgcRiYw.s:285    .text:0000000000000148 .L0 
     /tmp/ccgcRiYw.s:286    .text:0000000000000148 .L0 
     /tmp/ccgcRiYw.s:292    .text:0000000000000148 .L0 
     /tmp/ccgcRiYw.s:295    .text:0000000000000150 .L0 
     /tmp/ccgcRiYw.s:301    .text:0000000000000150 _ZN4_sem4waitEv
     /tmp/ccgcRiYw.s:304    .text:0000000000000150 .L0 
     /tmp/ccgcRiYw.s:306    .text:0000000000000150 .L0 
     /tmp/ccgcRiYw.s:307    .text:0000000000000150 .L0 
     /tmp/ccgcRiYw.s:308    .text:0000000000000150 .L0 
     /tmp/ccgcRiYw.s:310    .text:0000000000000154 .L0 
     /tmp/ccgcRiYw.s:313    .text:000000000000015c .L0 
     /tmp/ccgcRiYw.s:314    .text:0000000000000160 .L0 
     /tmp/ccgcRiYw.s:319    .text:0000000000000170 .L0 
GAS LISTING /tmp/ccgcRiYw.s 			page 14


     /tmp/ccgcRiYw.s:320    .text:0000000000000170 .L0 
     /tmp/ccgcRiYw.s:321    .text:0000000000000170 .L0 
     /tmp/ccgcRiYw.s:322    .text:0000000000000170 .L0 
     /tmp/ccgcRiYw.s:324    .text:0000000000000174 .L0 
     /tmp/ccgcRiYw.s:327    .text:0000000000000178 .L0 
     /tmp/ccgcRiYw.s:328    .text:0000000000000178 .L0 
     /tmp/ccgcRiYw.s:330    .text:000000000000017c .L0 
     /tmp/ccgcRiYw.s:332    .text:0000000000000180 .L0 
     /tmp/ccgcRiYw.s:334    .text:0000000000000184 .L0 
     /tmp/ccgcRiYw.s:339    .text:000000000000018c .L0 
     /tmp/ccgcRiYw.s:340    .text:000000000000018c .L0 
     /tmp/ccgcRiYw.s:342    .text:0000000000000190 .L0 
     /tmp/ccgcRiYw.s:345    .text:0000000000000194 .L0 
     /tmp/ccgcRiYw.s:346    .text:0000000000000198 .L0 
     /tmp/ccgcRiYw.s:347    .text:0000000000000198 .L0 
     /tmp/ccgcRiYw.s:349    .text:000000000000019c .L0 
     /tmp/ccgcRiYw.s:350    .text:000000000000019c .L0 
     /tmp/ccgcRiYw.s:352    .text:00000000000001a0 .L0 
     /tmp/ccgcRiYw.s:355    .text:00000000000001a4 .L0 
     /tmp/ccgcRiYw.s:357    .text:00000000000001a8 .L0 
     /tmp/ccgcRiYw.s:361    .text:00000000000001ac .L0 
     /tmp/ccgcRiYw.s:363    .text:00000000000001ac .L0 
     /tmp/ccgcRiYw.s:364    .text:00000000000001ac .L0 
     /tmp/ccgcRiYw.s:370    .text:00000000000001b8 .L0 
     /tmp/ccgcRiYw.s:376    .text:00000000000001c4 .L0 
     /tmp/ccgcRiYw.s:382    .text:00000000000001cc .L0 
     /tmp/ccgcRiYw.s:384    .text:00000000000001d0 .L0 
     /tmp/ccgcRiYw.s:386    .text:00000000000001d4 .L0 
     /tmp/ccgcRiYw.s:388    .text:00000000000001d8 .L0 
     /tmp/ccgcRiYw.s:394    .text:00000000000001dc .L0 
     /tmp/ccgcRiYw.s:395    .text:00000000000001dc .L0 
     /tmp/ccgcRiYw.s:398    .text:00000000000001e8 .L0 
     /tmp/ccgcRiYw.s:401    .text:00000000000001f0 .L0 
     /tmp/ccgcRiYw.s:402    .text:00000000000001f0 .L0 
     /tmp/ccgcRiYw.s:410    .text:00000000000001fc .L0 
     /tmp/ccgcRiYw.s:418    .text:0000000000000208 .L0 
     /tmp/ccgcRiYw.s:422    .text:0000000000000210 .L0 
     /tmp/ccgcRiYw.s:423    .text:0000000000000210 .L0 
     /tmp/ccgcRiYw.s:424    .text:0000000000000210 .L0 
     /tmp/ccgcRiYw.s:425    .text:0000000000000210 .L0 
     /tmp/ccgcRiYw.s:426    .text:0000000000000210 .L0 
     /tmp/ccgcRiYw.s:428    .text:0000000000000210 .L0 
     /tmp/ccgcRiYw.s:431    .text:0000000000000214 .L0 
     /tmp/ccgcRiYw.s:432    .text:0000000000000218 .L0 
     /tmp/ccgcRiYw.s:440    .text:0000000000000218 .L0 
     /tmp/ccgcRiYw.s:364    .text:00000000000001ac .L0 
     /tmp/ccgcRiYw.s:395    .text:00000000000001dc .L0 
     /tmp/ccgcRiYw.s:105    .text:0000000000000074 .L6
     /tmp/ccgcRiYw.s:135    .text:0000000000000094 .L3
     /tmp/ccgcRiYw.s:87     .text:0000000000000054 .L5
     /tmp/ccgcRiYw.s:81     .text:0000000000000050 .L8
     /tmp/ccgcRiYw.s:282    .text:0000000000000148 .L13
     /tmp/ccgcRiYw.s:200    .text:00000000000000d8 .L20
     /tmp/ccgcRiYw.s:277    .text:0000000000000140 .L15
     /tmp/ccgcRiYw.s:267    .text:0000000000000138 .L21
     /tmp/ccgcRiYw.s:230    .text:0000000000000100 .L12
     /tmp/ccgcRiYw.s:237    .text:000000000000010c .L11
GAS LISTING /tmp/ccgcRiYw.s 			page 15


     /tmp/ccgcRiYw.s:421    .text:0000000000000210 .L27
     /tmp/ccgcRiYw.s:360    .text:00000000000001ac .L32
     /tmp/ccgcRiYw.s:414    .text:0000000000000208 .L33
     /tmp/ccgcRiYw.s:406    .text:00000000000001fc .L25
     /tmp/ccgcRiYw.s:337    .text:000000000000018c .L24
     /tmp/ccgcRiYw.s:389    .text:00000000000001dc .L26
     /tmp/ccgcRiYw.s:343    .text:0000000000000194 .L23
     /tmp/ccgcRiYw.s:1632   .debug_abbrev:0000000000000000 .Ldebug_abbrev0
     /tmp/ccgcRiYw.s:3240   .debug_str:000000000000056b .LASF102
     /tmp/ccgcRiYw.s:3058   .debug_str:0000000000000075 .LASF103
     /tmp/ccgcRiYw.s:3204   .debug_str:0000000000000472 .LASF104
     /tmp/ccgcRiYw.s:5      .text:0000000000000000 .Ltext0
     /tmp/ccgcRiYw.s:435    .text:0000000000000218 .Letext0
     /tmp/ccgcRiYw.s:3044   .debug_line:0000000000000000 .Ldebug_line0
     /tmp/ccgcRiYw.s:3168   .debug_str:00000000000003a1 .LASF0
     /tmp/ccgcRiYw.s:3180   .debug_str:00000000000003e4 .LASF1
     /tmp/ccgcRiYw.s:3158   .debug_str:0000000000000350 .LASF2
     /tmp/ccgcRiYw.s:3130   .debug_str:00000000000002b5 .LASF4
     /tmp/ccgcRiYw.s:3222   .debug_str:00000000000004e6 .LASF3
     /tmp/ccgcRiYw.s:3066   .debug_str:00000000000000be .LASF5
     /tmp/ccgcRiYw.s:3182   .debug_str:00000000000003f7 .LASF6
     /tmp/ccgcRiYw.s:3166   .debug_str:000000000000038e .LASF7
     /tmp/ccgcRiYw.s:3248   .debug_str:000000000000064f .LASF8
     /tmp/ccgcRiYw.s:3116   .debug_str:000000000000023c .LASF9
     /tmp/ccgcRiYw.s:3196   .debug_str:000000000000044b .LASF10
     /tmp/ccgcRiYw.s:3244   .debug_str:000000000000063b .LASF11
     /tmp/ccgcRiYw.s:3072   .debug_str:00000000000000df .LASF12
     /tmp/ccgcRiYw.s:3050   .debug_str:0000000000000044 .LASF13
     /tmp/ccgcRiYw.s:3082   .debug_str:000000000000013e .LASF14
     /tmp/ccgcRiYw.s:3214   .debug_str:00000000000004c0 .LASF15
     /tmp/ccgcRiYw.s:3094   .debug_str:00000000000001a4 .LASF16
     /tmp/ccgcRiYw.s:3192   .debug_str:000000000000043b .LASF17
     /tmp/ccgcRiYw.s:3112   .debug_str:0000000000000223 .LASF65
     /tmp/ccgcRiYw.s:3124   .debug_str:0000000000000274 .LASF105
     /tmp/ccgcRiYw.s:3080   .debug_str:0000000000000126 .LASF106
     /tmp/ccgcRiYw.s:3148   .debug_str:0000000000000316 .LASF18
     /tmp/ccgcRiYw.s:3246   .debug_str:000000000000064a .LASF21
     /tmp/ccgcRiYw.s:3208   .debug_str:0000000000000497 .LASF19
     /tmp/ccgcRiYw.s:3268   .debug_str:00000000000006f4 .LASF20
     /tmp/ccgcRiYw.s:3160   .debug_str:000000000000035e .LASF25
     /tmp/ccgcRiYw.s:3098   .debug_str:00000000000001c0 .LASF22
     /tmp/ccgcRiYw.s:3152   .debug_str:000000000000032d .LASF23
     /tmp/ccgcRiYw.s:3256   .debug_str:000000000000068b .LASF61
     /tmp/ccgcRiYw.s:3226   .debug_str:0000000000000509 .LASF63
     /tmp/ccgcRiYw.s:3228   .debug_str:000000000000051c .LASF24
     /tmp/ccgcRiYw.s:3076   .debug_str:0000000000000108 .LASF26
     /tmp/ccgcRiYw.s:3128   .debug_str:00000000000002b0 .LASF27
     /tmp/ccgcRiYw.s:3234   .debug_str:0000000000000542 .LASF29
     /tmp/ccgcRiYw.s:3212   .debug_str:00000000000004a9 .LASF34
     /tmp/ccgcRiYw.s:3162   .debug_str:000000000000037d .LASF107
     /tmp/ccgcRiYw.s:3120   .debug_str:0000000000000257 .LASF108
     /tmp/ccgcRiYw.s:3238   .debug_str:0000000000000562 .LASF28
     /tmp/ccgcRiYw.s:3102   .debug_str:00000000000001e1 .LASF30
     /tmp/ccgcRiYw.s:3114   .debug_str:0000000000000234 .LASF31
     /tmp/ccgcRiYw.s:3100   .debug_str:00000000000001c5 .LASF32
     /tmp/ccgcRiYw.s:3242   .debug_str:000000000000062f .LASF33
     /tmp/ccgcRiYw.s:3048   .debug_str:0000000000000026 .LASF35
GAS LISTING /tmp/ccgcRiYw.s 			page 16


     /tmp/ccgcRiYw.s:3078   .debug_str:000000000000011c .LASF36
     /tmp/ccgcRiYw.s:3140   .debug_str:00000000000002de .LASF37
     /tmp/ccgcRiYw.s:3172   .debug_str:00000000000003b7 .LASF38
     /tmp/ccgcRiYw.s:3060   .debug_str:0000000000000082 .LASF39
     /tmp/ccgcRiYw.s:3142   .debug_str:00000000000002f9 .LASF40
     /tmp/ccgcRiYw.s:3260   .debug_str:000000000000069d .LASF41
     /tmp/ccgcRiYw.s:3122   .debug_str:000000000000026e .LASF109
     /tmp/ccgcRiYw.s:3254   .debug_str:0000000000000683 .LASF42
     /tmp/ccgcRiYw.s:3194   .debug_str:0000000000000445 .LASF43
     /tmp/ccgcRiYw.s:3190   .debug_str:0000000000000433 .LASF44
     /tmp/ccgcRiYw.s:3132   .debug_str:00000000000002bc .LASF45
     /tmp/ccgcRiYw.s:3200   .debug_str:0000000000000464 .LASF46
     /tmp/ccgcRiYw.s:3056   .debug_str:000000000000006d .LASF47
     /tmp/ccgcRiYw.s:3104   .debug_str:00000000000001fe .LASF48
     /tmp/ccgcRiYw.s:3054   .debug_str:0000000000000061 .LASF49
     /tmp/ccgcRiYw.s:3184   .debug_str:000000000000040a .LASF50
     /tmp/ccgcRiYw.s:3088   .debug_str:000000000000016f .LASF51
     /tmp/ccgcRiYw.s:3150   .debug_str:0000000000000320 .LASF52
     /tmp/ccgcRiYw.s:3064   .debug_str:00000000000000a5 .LASF53
     /tmp/ccgcRiYw.s:3178   .debug_str:00000000000003de .LASF54
     /tmp/ccgcRiYw.s:3156   .debug_str:0000000000000340 .LASF55
     /tmp/ccgcRiYw.s:3138   .debug_str:00000000000002d1 .LASF56
     /tmp/ccgcRiYw.s:3262   .debug_str:00000000000006b7 .LASF57
     /tmp/ccgcRiYw.s:3206   .debug_str:0000000000000492 .LASF58
     /tmp/ccgcRiYw.s:3252   .debug_str:0000000000000672 .LASF59
     /tmp/ccgcRiYw.s:3046   .debug_str:0000000000000000 .LASF60
     /tmp/ccgcRiYw.s:3106   .debug_str:0000000000000203 .LASF110
     /tmp/ccgcRiYw.s:3266   .debug_str:00000000000006e8 .LASF62
     /tmp/ccgcRiYw.s:3210   .debug_str:000000000000049c .LASF64
     /tmp/ccgcRiYw.s:3188   .debug_str:000000000000041c .LASF111
     /tmp/ccgcRiYw.s:3134   .debug_str:00000000000002c4 .LASF66
     /tmp/ccgcRiYw.s:3084   .debug_str:000000000000014a .LASF67
     /tmp/ccgcRiYw.s:3136   .debug_str:00000000000002c9 .LASF68
     /tmp/ccgcRiYw.s:3174   .debug_str:00000000000003c2 .LASF69
     /tmp/ccgcRiYw.s:3062   .debug_str:000000000000009f .LASF70
     /tmp/ccgcRiYw.s:3144   .debug_str:0000000000000302 .LASF73
     /tmp/ccgcRiYw.s:3074   .debug_str:00000000000000ef .LASF75
     /tmp/ccgcRiYw.s:3090   .debug_str:0000000000000186 .LASF71
     /tmp/ccgcRiYw.s:3126   .debug_str:0000000000000288 .LASF72
     /tmp/ccgcRiYw.s:3170   .debug_str:00000000000003ae .LASF74
     /tmp/ccgcRiYw.s:3108   .debug_str:000000000000020b .LASF76
     /tmp/ccgcRiYw.s:3220   .debug_str:00000000000004e1 .LASF112
     /tmp/ccgcRiYw.s:3264   .debug_str:00000000000006d9 .LASF113
     /tmp/ccgcRiYw.s:3224   .debug_str:00000000000004f8 .LASF77
     /tmp/ccgcRiYw.s:3110   .debug_str:000000000000021e .LASF78
     /tmp/ccgcRiYw.s:3258   .debug_str:0000000000000698 .LASF79
     /tmp/ccgcRiYw.s:3096   .debug_str:00000000000001ba .LASF80
     /tmp/ccgcRiYw.s:3230   .debug_str:000000000000052c .LASF81
     /tmp/ccgcRiYw.s:3232   .debug_str:000000000000053b .LASF82
     /tmp/ccgcRiYw.s:3236   .debug_str:0000000000000555 .LASF83
     /tmp/ccgcRiYw.s:3146   .debug_str:0000000000000310 .LASF84
     /tmp/ccgcRiYw.s:3070   .debug_str:00000000000000d2 .LASF85
     /tmp/ccgcRiYw.s:3186   .debug_str:0000000000000415 .LASF86
     /tmp/ccgcRiYw.s:3176   .debug_str:00000000000003cc .LASF87
     /tmp/ccgcRiYw.s:3270   .debug_str:00000000000006f9 .LASF88
     /tmp/ccgcRiYw.s:3092   .debug_str:0000000000000194 .LASF89
     /tmp/ccgcRiYw.s:3068   .debug_str:00000000000000c5 .LASF90
GAS LISTING /tmp/ccgcRiYw.s 			page 17


     /tmp/ccgcRiYw.s:3154   .debug_str:0000000000000332 .LASF91
     /tmp/ccgcRiYw.s:3202   .debug_str:000000000000046d .LASF92
     /tmp/ccgcRiYw.s:3086   .debug_str:0000000000000150 .LASF94
     /tmp/ccgcRiYw.s:3216   .debug_str:00000000000004d6 .LASF93
     /tmp/ccgcRiYw.s:3250   .debug_str:000000000000065f .LASF95
     /tmp/ccgcRiYw.s:302    .text:0000000000000150 .LFB29
     /tmp/ccgcRiYw.s:433    .text:0000000000000218 .LFE29
     /tmp/ccgcRiYw.s:2735   .debug_loc:0000000000000000 .LLST12
     /tmp/ccgcRiYw.s:367    .text:00000000000001b8 .LBB46
     /tmp/ccgcRiYw.s:3012   .debug_ranges:0000000000000000 .Ldebug_ranges0
     /tmp/ccgcRiYw.s:2768   .debug_loc:0000000000000088 .LLST13
     /tmp/ccgcRiYw.s:2779   .debug_loc:00000000000000be .LLST14
     /tmp/ccgcRiYw.s:2794   .debug_loc:00000000000000f8 .LLST15
     /tmp/ccgcRiYw.s:373    .text:00000000000001c4 .LBB48
     /tmp/ccgcRiYw.s:380    .text:00000000000001cc .LBE48
     /tmp/ccgcRiYw.s:2805   .debug_loc:000000000000012e .LLST16
     /tmp/ccgcRiYw.s:2813   .debug_loc:0000000000000152 .LLST17
     /tmp/ccgcRiYw.s:2820   .debug_loc:0000000000000175 .LLST18
     /tmp/ccgcRiYw.s:372    .text:00000000000001c4 .LVL31
     /tmp/ccgcRiYw.s:403    .text:00000000000001f8 .LVL34
     /tmp/ccgcRiYw.s:171    .text:00000000000000ac .LFB28
     /tmp/ccgcRiYw.s:296    .text:0000000000000150 .LFE28
     /tmp/ccgcRiYw.s:2827   .debug_loc:0000000000000198 .LLST7
     /tmp/ccgcRiYw.s:3164   .debug_str:0000000000000387 .LASF96
     /tmp/ccgcRiYw.s:2868   .debug_loc:0000000000000246 .LLST8
     /tmp/ccgcRiYw.s:216    .text:00000000000000ec .LBB39
     /tmp/ccgcRiYw.s:2875   .debug_loc:0000000000000269 .LLST9
     /tmp/ccgcRiYw.s:2905   .debug_loc:00000000000002d0 .LLST10
     /tmp/ccgcRiYw.s:2916   .debug_loc:0000000000000306 .LLST11
     /tmp/ccgcRiYw.s:236    .text:000000000000010c .LVL19
     /tmp/ccgcRiYw.s:248    .text:0000000000000120 .LVL20
     /tmp/ccgcRiYw.s:3198   .debug_str:000000000000045a .LASF97
     /tmp/ccgcRiYw.s:3118   .debug_str:000000000000024a .LASF98
     /tmp/ccgcRiYw.s:55     .text:0000000000000028 .LFB26
     /tmp/ccgcRiYw.s:155    .text:00000000000000ac .LFE26
     /tmp/ccgcRiYw.s:2923   .debug_loc:0000000000000329 .LLST1
     /tmp/ccgcRiYw.s:104    .text:0000000000000074 .LVL7
     /tmp/ccgcRiYw.s:2941   .debug_loc:0000000000000375 .LLST2
     /tmp/ccgcRiYw.s:83     .text:0000000000000050 .LBB30
     /tmp/ccgcRiYw.s:2948   .debug_loc:0000000000000398 .LLST3
     /tmp/ccgcRiYw.s:2963   .debug_loc:00000000000003d2 .LLST4
     /tmp/ccgcRiYw.s:2974   .debug_loc:0000000000000408 .LLST5
     /tmp/ccgcRiYw.s:93     .text:0000000000000060 .LVL6
     /tmp/ccgcRiYw.s:109    .text:0000000000000074 .LBB34
     /tmp/ccgcRiYw.s:119    .text:0000000000000080 .LBE34
     /tmp/ccgcRiYw.s:2981   .debug_loc:000000000000042b .LLST6
     /tmp/ccgcRiYw.s:3052   .debug_str:0000000000000054 .LASF99
     /tmp/ccgcRiYw.s:10     .text:0000000000000000 .LFB23
     /tmp/ccgcRiYw.s:47     .text:0000000000000028 .LFE23
     /tmp/ccgcRiYw.s:23     .text:000000000000000c .LBB26
     /tmp/ccgcRiYw.s:31     .text:0000000000000014 .LBE26
     /tmp/ccgcRiYw.s:2990   .debug_loc:0000000000000450 .LLST0
     /tmp/ccgcRiYw.s:3218   .debug_str:00000000000004db .LASF100
     /tmp/ccgcRiYw.s:3272   .debug_str:00000000000006fe .LASF101
     /tmp/ccgcRiYw.s:305    .text:0000000000000150 .LVL26
     /tmp/ccgcRiYw.s:336    .text:000000000000018c .LVL27
     /tmp/ccgcRiYw.s:353    .text:00000000000001a0 .LVL28
GAS LISTING /tmp/ccgcRiYw.s 			page 18


     /tmp/ccgcRiYw.s:359    .text:00000000000001ac .LVL29
     /tmp/ccgcRiYw.s:420    .text:0000000000000210 .LVL37
     /tmp/ccgcRiYw.s:429    .text:0000000000000214 .LVL38
     /tmp/ccgcRiYw.s:366    .text:00000000000001b8 .LVL30
     /tmp/ccgcRiYw.s:390    .text:00000000000001dc .LVL33
     /tmp/ccgcRiYw.s:405    .text:00000000000001fc .LVL35
     /tmp/ccgcRiYw.s:413    .text:0000000000000208 .LVL36
     /tmp/ccgcRiYw.s:378    .text:00000000000001cc .LVL32
     /tmp/ccgcRiYw.s:174    .text:00000000000000ac .LVL12
     /tmp/ccgcRiYw.s:196    .text:00000000000000d4 .LVL13
     /tmp/ccgcRiYw.s:199    .text:00000000000000d8 .LVL14
     /tmp/ccgcRiYw.s:220    .text:00000000000000f0 .LVL16
     /tmp/ccgcRiYw.s:266    .text:0000000000000138 .LVL22
     /tmp/ccgcRiYw.s:281    .text:0000000000000148 .LVL24
     /tmp/ccgcRiYw.s:293    .text:000000000000014c .LVL25
     /tmp/ccgcRiYw.s:262    .text:0000000000000130 .LVL21
     /tmp/ccgcRiYw.s:215    .text:00000000000000ec .LVL15
     /tmp/ccgcRiYw.s:223    .text:00000000000000f4 .LVL17
     /tmp/ccgcRiYw.s:276    .text:0000000000000140 .LVL23
     /tmp/ccgcRiYw.s:233    .text:0000000000000104 .LVL18
     /tmp/ccgcRiYw.s:60     .text:0000000000000028 .LVL3
     /tmp/ccgcRiYw.s:80     .text:0000000000000050 .LVL4
     /tmp/ccgcRiYw.s:148    .text:00000000000000a0 .LVL11
     /tmp/ccgcRiYw.s:124    .text:0000000000000084 .LVL9
     /tmp/ccgcRiYw.s:134    .text:0000000000000094 .LVL10
     /tmp/ccgcRiYw.s:90     .text:0000000000000058 .LVL5
     /tmp/ccgcRiYw.s:117    .text:0000000000000080 .LVL8
     /tmp/ccgcRiYw.s:21     .text:000000000000000c .LVL1
     /tmp/ccgcRiYw.s:29     .text:0000000000000014 .LVL2
     /tmp/ccgcRiYw.s:441    .debug_info:0000000000000000 .Ldebug_info0
     /tmp/ccgcRiYw.s:82     .text:0000000000000050 .LBB29
     /tmp/ccgcRiYw.s:106    .text:0000000000000074 .LBE29
     /tmp/ccgcRiYw.s:122    .text:0000000000000084 .LBB36
     /tmp/ccgcRiYw.s:138    .text:0000000000000094 .LBE36
     /tmp/ccgcRiYw.s:95     .text:0000000000000060 .LBE30
     /tmp/ccgcRiYw.s:125    .text:0000000000000084 .LBB33
     /tmp/ccgcRiYw.s:137    .text:0000000000000094 .LBE33
     /tmp/ccgcRiYw.s:213    .text:00000000000000ec .LBB38
     /tmp/ccgcRiYw.s:249    .text:0000000000000120 .LBE38
     /tmp/ccgcRiYw.s:270    .text:0000000000000138 .LBB43
     /tmp/ccgcRiYw.s:289    .text:0000000000000148 .LBE43
     /tmp/ccgcRiYw.s:239    .text:000000000000010c .LBE39
     /tmp/ccgcRiYw.s:271    .text:0000000000000138 .LBB42
     /tmp/ccgcRiYw.s:288    .text:0000000000000148 .LBE42
     /tmp/ccgcRiYw.s:392    .text:00000000000001dc .LBE46
     /tmp/ccgcRiYw.s:407    .text:00000000000001fc .LBB51
     /tmp/ccgcRiYw.s:416    .text:0000000000000208 .LBE51
     /tmp/ccgcRiYw.s:158    .gcc_except_table:0000000000000000 .LLSDA26

UNDEFINED SYMBOLS
_ZdlPv
_ZN9Scheduler3putEP3TCB
__gxx_personality_v0
_ZN3TCB7runningE
_Znwm
_ZN3TCB8dispatchEv
