GAS LISTING /tmp/cc4swQhK.s 			page 1


   1              		.file	"MemoryAllocator.cpp"
   2              		.option pic
   3              		.option norelax
   4              		.text
   5              	.Ltext0:
   6              		.align	2
   7              		.globl	_ZN15MemoryAllocator4initEv
   9              	_ZN15MemoryAllocator4initEv:
  10              	.LFB0:
  11              		.file 1 "src/MemoryAllocator.cpp"
   1:src/MemoryAllocator.cpp **** //
   2:src/MemoryAllocator.cpp **** // Created by os on 8/24/22.
   3:src/MemoryAllocator.cpp **** //
   4:src/MemoryAllocator.cpp **** 
   5:src/MemoryAllocator.cpp **** #include "../h/MemoryAllocator.hpp"
   6:src/MemoryAllocator.cpp **** 
   7:src/MemoryAllocator.cpp **** void MemoryAllocator::init() {
  12              		.loc 1 7 30
  13              		.cfi_startproc
  14 0000 130101FF 		addi	sp,sp,-16
  15              		.cfi_def_cfa_offset 16
  16 0004 23348100 		sd	s0,8(sp)
  17              		.cfi_offset 8, -8
  18 0008 13040101 		addi	s0,sp,16
  19              		.cfi_def_cfa 8, 0
   8:src/MemoryAllocator.cpp ****     freeList = (struct MemoryHeader*)HEAP_START_ADDR;
  20              		.loc 1 8 5
  21              		.loc 1 8 14 is_stmt 0
  22 000c 97070000 		la	a5,HEAP_START_ADDR
  22      83B70700 
  23 0014 03B70700 		ld	a4,0(a5)
  24 0018 97070000 		la	a5,_ZN15MemoryAllocator8freeListE
  24      83B70700 
  25 0020 23B0E700 		sd	a4,0(a5)
   9:src/MemoryAllocator.cpp **** 
  10:src/MemoryAllocator.cpp ****     struct MemoryHeader* mem = freeList;
  26              		.loc 1 10 5 is_stmt 1
  27              	.LVL0:
  11:src/MemoryAllocator.cpp **** 
  12:src/MemoryAllocator.cpp ****     mem->size = (size_t)((char*)HEAP_END_ADDR - (char*)HEAP_START_ADDR) - sizeof(MemoryHeader);
  28              		.loc 1 12 5
  29              		.loc 1 12 26 is_stmt 0
  30 0024 97070000 		la	a5,HEAP_END_ADDR
  30      83B70700 
  31 002c 83B70700 		ld	a5,0(a5)
  32              		.loc 1 12 47
  33 0030 B387E740 		sub	a5,a5,a4
  34              		.loc 1 12 73
  35 0034 938707FF 		addi	a5,a5,-16
  36              		.loc 1 12 15
  37 0038 2330F700 		sd	a5,0(a4)
  13:src/MemoryAllocator.cpp ****     mem->next = nullptr;
  38              		.loc 1 13 5 is_stmt 1
  39              		.loc 1 13 15 is_stmt 0
  40 003c 23340700 		sd	zero,8(a4)
  14:src/MemoryAllocator.cpp **** }
  41              		.loc 1 14 1
GAS LISTING /tmp/cc4swQhK.s 			page 2


  42 0040 03348100 		ld	s0,8(sp)
  43              		.cfi_restore 8
  44              		.cfi_def_cfa 2, 16
  45 0044 13010101 		addi	sp,sp,16
  46              		.cfi_def_cfa_offset 0
  47 0048 67800000 		jr	ra
  48              		.cfi_endproc
  49              	.LFE0:
  51              		.align	2
  52              		.globl	_ZN15MemoryAllocator11__mem_allocEm
  54              	_ZN15MemoryAllocator11__mem_allocEm:
  55              	.LFB1:
  15:src/MemoryAllocator.cpp **** 
  16:src/MemoryAllocator.cpp **** void *MemoryAllocator::__mem_alloc(size_t size) {
  56              		.loc 1 16 49 is_stmt 1
  57              		.cfi_startproc
  58              	.LVL1:
  59 004c 130101FF 		addi	sp,sp,-16
  60              		.cfi_def_cfa_offset 16
  61 0050 23348100 		sd	s0,8(sp)
  62              		.cfi_offset 8, -8
  63 0054 13040101 		addi	s0,sp,16
  64              		.cfi_def_cfa 8, 0
  17:src/MemoryAllocator.cpp ****     size_t sizeToAllocate = size * MEM_BLOCK_SIZE;
  65              		.loc 1 17 5
  66              		.loc 1 17 12 is_stmt 0
  67 0058 13176500 		slli	a4,a0,6
  68              	.LVL2:
  18:src/MemoryAllocator.cpp **** 
  19:src/MemoryAllocator.cpp ****     if(!freeList) return nullptr;
  69              		.loc 1 19 5 is_stmt 1
  70              		.loc 1 19 8 is_stmt 0
  71 005c 97070000 		la	a5,_ZN15MemoryAllocator8freeListE
  71      83B70700 
  72 0064 03B50700 		ld	a0,0(a5)
  73              	.LVL3:
  74              		.loc 1 19 5
  75 0068 63000506 		beqz	a0,.L3
  20:src/MemoryAllocator.cpp **** 
  21:src/MemoryAllocator.cpp ****     struct MemoryHeader* tmp, *prev = nullptr;
  76              		.loc 1 21 32
  77 006c 93060000 		li	a3,0
  78              	.L6:
  79              	.LVL4:
  22:src/MemoryAllocator.cpp ****     for (tmp = freeList; tmp; prev = tmp, tmp = tmp->next) {
  80              		.loc 1 22 26 is_stmt 1 discriminator 1
  81 0070 630C0500 		beqz	a0,.L5
  23:src/MemoryAllocator.cpp ****         if(tmp->size >= sizeToAllocate) {
  82              		.loc 1 23 9
  83              		.loc 1 23 17 is_stmt 0
  84 0074 83370500 		ld	a5,0(a0)
  85              		.loc 1 23 9
  86 0078 63F8E700 		bgeu	a5,a4,.L5
  22:src/MemoryAllocator.cpp ****     for (tmp = freeList; tmp; prev = tmp, tmp = tmp->next) {
  87              		.loc 1 22 5 is_stmt 1 discriminator 2
  88              	.LVL5:
  22:src/MemoryAllocator.cpp ****     for (tmp = freeList; tmp; prev = tmp, tmp = tmp->next) {
GAS LISTING /tmp/cc4swQhK.s 			page 3


  89              		.loc 1 22 36 is_stmt 0 discriminator 2
  90 007c 93060500 		mv	a3,a0
  22:src/MemoryAllocator.cpp ****     for (tmp = freeList; tmp; prev = tmp, tmp = tmp->next) {
  91              		.loc 1 22 47 discriminator 2
  92 0080 03358500 		ld	a0,8(a0)
  93              	.LVL6:
  22:src/MemoryAllocator.cpp ****     for (tmp = freeList; tmp; prev = tmp, tmp = tmp->next) {
  94              		.loc 1 22 5 discriminator 2
  95 0084 6FF0DFFE 		j	.L6
  96              	.L5:
  24:src/MemoryAllocator.cpp ****             break;
  25:src/MemoryAllocator.cpp ****         }
  26:src/MemoryAllocator.cpp ****     }
  27:src/MemoryAllocator.cpp **** 
  28:src/MemoryAllocator.cpp ****     if(!tmp) return nullptr;
  97              		.loc 1 28 5 is_stmt 1
  98 0088 63000504 		beqz	a0,.L3
  29:src/MemoryAllocator.cpp **** 
  30:src/MemoryAllocator.cpp ****     size_t remain = tmp->size - sizeToAllocate;
  99              		.loc 1 30 5
 100              		.loc 1 30 26 is_stmt 0
 101 008c 83370500 		ld	a5,0(a0)
 102              		.loc 1 30 12
 103 0090 B387E740 		sub	a5,a5,a4
 104              	.LVL7:
  31:src/MemoryAllocator.cpp **** 
  32:src/MemoryAllocator.cpp ****     if (remain >= sizeof(MemoryHeader)) {
 105              		.loc 1 32 5 is_stmt 1
 106              	.LBB2:
 107 0094 1306F000 		li	a2,15
 108 0098 6376F604 		bleu	a5,a2,.L7
 109              	.LBB3:
  33:src/MemoryAllocator.cpp ****         tmp->size = sizeToAllocate;
 110              		.loc 1 33 9
 111              		.loc 1 33 19 is_stmt 0
 112 009c 2330E500 		sd	a4,0(a0)
  34:src/MemoryAllocator.cpp ****         size_t offset = sizeof(MemoryHeader) + sizeToAllocate;
 113              		.loc 1 34 9 is_stmt 1
 114              		.loc 1 34 16 is_stmt 0
 115 00a0 13070701 		addi	a4,a4,16
 116              	.LVL8:
  35:src/MemoryAllocator.cpp ****         struct MemoryHeader* newHeader = ( struct MemoryHeader*) ((char*)tmp + offset);
 117              		.loc 1 35 9 is_stmt 1
 118              		.loc 1 35 30 is_stmt 0
 119 00a4 3307E500 		add	a4,a0,a4
 120              	.LVL9:
  36:src/MemoryAllocator.cpp ****         if (prev) prev->next = newHeader;
 121              		.loc 1 36 9 is_stmt 1
 122 00a8 63860602 		beqz	a3,.L8
 123              		.loc 1 36 19 discriminator 1
 124              		.loc 1 36 30 is_stmt 0 discriminator 1
 125 00ac 23B4E600 		sd	a4,8(a3)
 126              	.LVL10:
 127              	.L9:
  37:src/MemoryAllocator.cpp ****         else freeList = newHeader;
  38:src/MemoryAllocator.cpp ****         newHeader->next = tmp->next;
 128              		.loc 1 38 9 is_stmt 1
GAS LISTING /tmp/cc4swQhK.s 			page 4


 129              		.loc 1 38 32 is_stmt 0
 130 00b0 83368500 		ld	a3,8(a0)
 131              		.loc 1 38 25
 132 00b4 2334D700 		sd	a3,8(a4)
  39:src/MemoryAllocator.cpp ****         newHeader->size = remain - sizeof(MemoryHeader);
 133              		.loc 1 39 9 is_stmt 1
 134              		.loc 1 39 34 is_stmt 0
 135 00b8 938707FF 		addi	a5,a5,-16
 136              	.LVL11:
 137              		.loc 1 39 25
 138 00bc 2330F700 		sd	a5,0(a4)
 139              	.LVL12:
 140              	.L10:
 141              	.LBE3:
 142              	.LBE2:
  40:src/MemoryAllocator.cpp ****     }
  41:src/MemoryAllocator.cpp ****     else {
  42:src/MemoryAllocator.cpp ****         if (prev) prev->next = tmp;
  43:src/MemoryAllocator.cpp ****         else freeList = tmp->next;
  44:src/MemoryAllocator.cpp ****     }
  45:src/MemoryAllocator.cpp ****     tmp->next = nullptr;
 143              		.loc 1 45 5 is_stmt 1
 144              		.loc 1 45 15 is_stmt 0
 145 00c0 23340500 		sd	zero,8(a0)
  46:src/MemoryAllocator.cpp ****     return (char*)tmp + sizeof(MemoryHeader);
 146              		.loc 1 46 5 is_stmt 1
 147              		.loc 1 46 44 is_stmt 0
 148 00c4 13050501 		addi	a0,a0,16
 149              	.LVL13:
 150              	.L3:
  47:src/MemoryAllocator.cpp **** }
 151              		.loc 1 47 1
 152 00c8 03348100 		ld	s0,8(sp)
 153              		.cfi_remember_state
 154              		.cfi_restore 8
 155              		.cfi_def_cfa 2, 16
 156 00cc 13010101 		addi	sp,sp,16
 157              		.cfi_def_cfa_offset 0
 158 00d0 67800000 		jr	ra
 159              	.LVL14:
 160              	.L8:
 161              		.cfi_restore_state
 162              	.LBB5:
 163              	.LBB4:
  37:src/MemoryAllocator.cpp ****         newHeader->next = tmp->next;
 164              		.loc 1 37 14 is_stmt 1
  37:src/MemoryAllocator.cpp ****         newHeader->next = tmp->next;
 165              		.loc 1 37 23 is_stmt 0
 166 00d4 97060000 		la	a3,_ZN15MemoryAllocator8freeListE
 166      83B60600 
 167              	.LVL15:
 168 00dc 23B0E600 		sd	a4,0(a3)
 169              	.LVL16:
 170 00e0 6FF01FFD 		j	.L9
 171              	.LVL17:
 172              	.L7:
 173              	.LBE4:
GAS LISTING /tmp/cc4swQhK.s 			page 5


  42:src/MemoryAllocator.cpp ****         else freeList = tmp->next;
 174              		.loc 1 42 9 is_stmt 1
 175 00e4 63860600 		beqz	a3,.L11
  42:src/MemoryAllocator.cpp ****         else freeList = tmp->next;
 176              		.loc 1 42 19 discriminator 1
  42:src/MemoryAllocator.cpp ****         else freeList = tmp->next;
 177              		.loc 1 42 30 is_stmt 0 discriminator 1
 178 00e8 23B4A600 		sd	a0,8(a3)
 179 00ec 6FF05FFD 		j	.L10
 180              	.L11:
  43:src/MemoryAllocator.cpp ****     }
 181              		.loc 1 43 14 is_stmt 1
  43:src/MemoryAllocator.cpp ****     }
 182              		.loc 1 43 30 is_stmt 0
 183 00f0 03378500 		ld	a4,8(a0)
 184              	.LVL18:
  43:src/MemoryAllocator.cpp ****     }
 185              		.loc 1 43 23
 186 00f4 97070000 		la	a5,_ZN15MemoryAllocator8freeListE
 186      83B70700 
 187              	.LVL19:
 188 00fc 23B0E700 		sd	a4,0(a5)
 189              	.LVL20:
 190 0100 6FF01FFC 		j	.L10
 191              	.LBE5:
 192              		.cfi_endproc
 193              	.LFE1:
 195              		.align	2
 196              		.globl	_ZN15MemoryAllocator10__mem_freeEPv
 198              	_ZN15MemoryAllocator10__mem_freeEPv:
 199              	.LFB2:
  48:src/MemoryAllocator.cpp **** 
  49:src/MemoryAllocator.cpp **** int MemoryAllocator::__mem_free(void *ptr) {
 200              		.loc 1 49 44 is_stmt 1
 201              		.cfi_startproc
 202              	.LVL21:
 203 0104 130101FF 		addi	sp,sp,-16
 204              		.cfi_def_cfa_offset 16
 205 0108 23348100 		sd	s0,8(sp)
 206              		.cfi_offset 8, -8
 207 010c 13040101 		addi	s0,sp,16
 208              		.cfi_def_cfa 8, 0
  50:src/MemoryAllocator.cpp ****     return 0;
 209              		.loc 1 50 5
  51:src/MemoryAllocator.cpp **** }
 210              		.loc 1 51 1 is_stmt 0
 211 0110 13050000 		li	a0,0
 212              	.LVL22:
 213 0114 03348100 		ld	s0,8(sp)
 214              		.cfi_restore 8
 215              		.cfi_def_cfa 2, 16
 216 0118 13010101 		addi	sp,sp,16
 217              		.cfi_def_cfa_offset 0
 218 011c 67800000 		jr	ra
 219              		.cfi_endproc
 220              	.LFE2:
 222              		.globl	MemoryHeader
GAS LISTING /tmp/cc4swQhK.s 			page 6


 223              		.bss
 224              		.align	3
 227              	MemoryHeader:
 228 0000 00000000 		.zero	16
 228      00000000 
 228      00000000 
 228      00000000 
 229              		.text
 230              	.Letext0:
 231              		.file 2 "src/../h/../lib/hw.h"
 232              		.file 3 "src/../h/MemoryAllocator.hpp"
GAS LISTING /tmp/cc4swQhK.s 			page 7

