GAS LISTING /tmp/cciNAykN.s 			page 1


   1              		.file	"riscv.cpp"
   2              		.option pic
   3              		.option norelax
   4              		.text
   5              	.Ltext0:
   6              		.align	2
   7              		.globl	_ZN5Riscv10popSppSpieEv
   9              	_ZN5Riscv10popSppSpieEv:
  10              	.LFB49:
  11              		.file 1 "src/riscv.cpp"
   1:src/riscv.cpp **** #include "../h/riscv.hpp"
   2:src/riscv.cpp **** #include "../h/tcb.hpp"
   3:src/riscv.cpp **** #include "../lib/console.h"
   4:src/riscv.cpp **** #include "../h/_sem.hpp"
   5:src/riscv.cpp **** 
   6:src/riscv.cpp **** void Riscv::popSppSpie()
   7:src/riscv.cpp **** {
  12              		.loc 1 7 1
  13              		.cfi_startproc
  14 0000 130101FF 		addi	sp,sp,-16
  15              		.cfi_def_cfa_offset 16
  16 0004 23348100 		sd	s0,8(sp)
  17              		.cfi_offset 8, -8
  18 0008 13040101 		addi	s0,sp,16
  19              		.cfi_def_cfa 8, 0
   8:src/riscv.cpp ****     __asm__ volatile ("csrw sepc, ra");
  20              		.loc 1 8 5
  21              		.loc 1 8 39 is_stmt 0
  22              	#APP
  23              	# 8 "src/riscv.cpp" 1
   9              	    __asm__ volatile ("sret");
  24              		csrw sepc, ra
  25              	# 0 "" 2
  26              		.loc 1 9 5 is_stmt 1
  27              		.loc 1 9 30 is_stmt 0
  28              	# 9 "src/riscv.cpp" 1
  10              	}
  29              		sret
  30              	# 0 "" 2
  31              		.loc 1 10 1
  32              	#NO_APP
  33 0014 03348100 		ld	s0,8(sp)
  34              		.cfi_restore 8
  35              		.cfi_def_cfa 2, 16
  36 0018 13010101 		addi	sp,sp,16
  37              		.cfi_def_cfa_offset 0
  38 001c 67800000 		jr	ra
  39              		.cfi_endproc
  40              	.LFE49:
  42              		.section	.rodata.str1.8,"aMS",@progbits,1
  43              		.align	3
  44              	.LC0:
  45 0000 0A00     		.string	"\n"
  46              		.text
  47              		.align	2
  48              		.globl	_ZN5Riscv20handleSupervisorTrapEv
  50              	_ZN5Riscv20handleSupervisorTrapEv:
GAS LISTING /tmp/cciNAykN.s 			page 2


  51              	.LFB50:
  11:src/riscv.cpp **** 
  12:src/riscv.cpp **** void Riscv::handleSupervisorTrap() {
  52              		.loc 1 12 36 is_stmt 1
  53              		.cfi_startproc
  54              		.cfi_personality 0x9b,DW.ref.__gxx_personality_v0
  55              		.cfi_lsda 0x1b,.LLSDA50
  56 0020 130101F7 		addi	sp,sp,-144
  57              		.cfi_def_cfa_offset 144
  58 0024 23341108 		sd	ra,136(sp)
  59 0028 23308108 		sd	s0,128(sp)
  60 002c 233C9106 		sd	s1,120(sp)
  61 0030 23382107 		sd	s2,112(sp)
  62 0034 23343107 		sd	s3,104(sp)
  63 0038 23304107 		sd	s4,96(sp)
  64 003c 233C5105 		sd	s5,88(sp)
  65              		.cfi_offset 1, -8
  66              		.cfi_offset 8, -16
  67              		.cfi_offset 9, -24
  68              		.cfi_offset 18, -32
  69              		.cfi_offset 19, -40
  70              		.cfi_offset 20, -48
  71              		.cfi_offset 21, -56
  72 0040 13040109 		addi	s0,sp,144
  73              		.cfi_def_cfa 8, 0
  13:src/riscv.cpp ****     uint64 a1 = r_a1();
  74              		.loc 1 13 5
  75              	.LBB93:
  76              	.LBB94:
  77              		.file 2 "src/../h/riscv.hpp"
   1:src/../h/riscv.hpp **** #ifndef RISCV_HPP
   2:src/../h/riscv.hpp **** #define RISCV_HPP
   3:src/../h/riscv.hpp **** 
   4:src/../h/riscv.hpp **** #include "../lib/hw.h"
   5:src/../h/riscv.hpp **** 
   6:src/../h/riscv.hpp **** class Riscv {
   7:src/../h/riscv.hpp **** public:
   8:src/../h/riscv.hpp **** 
   9:src/../h/riscv.hpp ****     // pop sstatus.spp and sstatus.spie bits (has to be a non inline function)
  10:src/../h/riscv.hpp ****     static void popSppSpie();
  11:src/../h/riscv.hpp **** 
  12:src/../h/riscv.hpp ****     // read register scause
  13:src/../h/riscv.hpp ****     static uint64 r_scause();
  14:src/../h/riscv.hpp **** 
  15:src/../h/riscv.hpp ****     // write register scause
  16:src/../h/riscv.hpp ****     static void w_scause(uint64 scause);
  17:src/../h/riscv.hpp **** 
  18:src/../h/riscv.hpp ****     // read register sepc
  19:src/../h/riscv.hpp ****     static uint64 r_sepc();
  20:src/../h/riscv.hpp **** 
  21:src/../h/riscv.hpp ****     // write register sepc
  22:src/../h/riscv.hpp ****     static void w_sepc(uint64 sepc);
  23:src/../h/riscv.hpp **** 
  24:src/../h/riscv.hpp ****     // read register stvec
  25:src/../h/riscv.hpp ****     static uint64 r_stvec();
  26:src/../h/riscv.hpp **** 
  27:src/../h/riscv.hpp ****     // write register stvec
GAS LISTING /tmp/cciNAykN.s 			page 3


  28:src/../h/riscv.hpp ****     static void w_stvec(uint64 stvec);
  29:src/../h/riscv.hpp **** 
  30:src/../h/riscv.hpp ****     // read register stval
  31:src/../h/riscv.hpp ****     static uint64 r_stval();
  32:src/../h/riscv.hpp **** 
  33:src/../h/riscv.hpp ****     // write register stval
  34:src/../h/riscv.hpp ****     static void w_stval(uint64 stval);
  35:src/../h/riscv.hpp **** 
  36:src/../h/riscv.hpp ****     enum BitMaskSip
  37:src/../h/riscv.hpp ****     {
  38:src/../h/riscv.hpp ****         SIP_SSIP = (1 << 1),
  39:src/../h/riscv.hpp ****         SIP_STIP = (1 << 5),
  40:src/../h/riscv.hpp ****         SIP_SEIP = (1 << 9),
  41:src/../h/riscv.hpp ****     };
  42:src/../h/riscv.hpp **** 
  43:src/../h/riscv.hpp ****     // mask set register sip
  44:src/../h/riscv.hpp ****     static void ms_sip(uint64 mask);
  45:src/../h/riscv.hpp **** 
  46:src/../h/riscv.hpp ****     // mask clear register sip
  47:src/../h/riscv.hpp ****     static void mc_sip(uint64 mask);
  48:src/../h/riscv.hpp **** 
  49:src/../h/riscv.hpp ****     // read register sip
  50:src/../h/riscv.hpp ****     static uint64 r_sip();
  51:src/../h/riscv.hpp **** 
  52:src/../h/riscv.hpp ****     // write register sip
  53:src/../h/riscv.hpp ****     static void w_sip(uint64 sip);
  54:src/../h/riscv.hpp **** 
  55:src/../h/riscv.hpp ****     enum BitMaskSstatus
  56:src/../h/riscv.hpp ****     {
  57:src/../h/riscv.hpp ****         SSTATUS_SIE = (1 << 1),
  58:src/../h/riscv.hpp ****         SSTATUS_SPIE = (1 << 5),
  59:src/../h/riscv.hpp ****         SSTATUS_SPP = (1 << 8),
  60:src/../h/riscv.hpp ****     };
  61:src/../h/riscv.hpp **** 
  62:src/../h/riscv.hpp ****     // mask set register sstatus
  63:src/../h/riscv.hpp ****     static void ms_sstatus(uint64 mask);
  64:src/../h/riscv.hpp **** 
  65:src/../h/riscv.hpp ****     // mask clear register sstatus
  66:src/../h/riscv.hpp ****     static void mc_sstatus(uint64 mask);
  67:src/../h/riscv.hpp **** 
  68:src/../h/riscv.hpp ****     // read register sstatus
  69:src/../h/riscv.hpp ****     static uint64 r_sstatus();
  70:src/../h/riscv.hpp **** 
  71:src/../h/riscv.hpp ****     // write register sstatus
  72:src/../h/riscv.hpp ****     static void w_sstatus(uint64 sstatus);
  73:src/../h/riscv.hpp **** 
  74:src/../h/riscv.hpp ****     //read a0
  75:src/../h/riscv.hpp ****     static long r_a0();
  76:src/../h/riscv.hpp **** 
  77:src/../h/riscv.hpp ****     //write a0
  78:src/../h/riscv.hpp ****     static void w_a0(long a0);
  79:src/../h/riscv.hpp **** 
  80:src/../h/riscv.hpp ****     //read a1
  81:src/../h/riscv.hpp ****     static uint64 r_a1();
  82:src/../h/riscv.hpp **** 
  83:src/../h/riscv.hpp ****     //write a1
  84:src/../h/riscv.hpp ****     static void w_a1(uint64 a1);
GAS LISTING /tmp/cciNAykN.s 			page 4


  85:src/../h/riscv.hpp **** 
  86:src/../h/riscv.hpp ****     //read a2
  87:src/../h/riscv.hpp ****     static uint64 r_a2();
  88:src/../h/riscv.hpp **** 
  89:src/../h/riscv.hpp ****     //write a2
  90:src/../h/riscv.hpp ****     static void w_a2(uint64 a2);
  91:src/../h/riscv.hpp **** 
  92:src/../h/riscv.hpp ****     //read a3
  93:src/../h/riscv.hpp ****     static uint64 r_a3();
  94:src/../h/riscv.hpp **** 
  95:src/../h/riscv.hpp ****     //write a3
  96:src/../h/riscv.hpp ****     static void w_a3(uint64 a3);
  97:src/../h/riscv.hpp **** 
  98:src/../h/riscv.hpp ****     //read a4
  99:src/../h/riscv.hpp ****     static uint64 r_a4();
 100:src/../h/riscv.hpp **** 
 101:src/../h/riscv.hpp ****     //write a4
 102:src/../h/riscv.hpp ****     static void w_a4(uint64 a4);
 103:src/../h/riscv.hpp **** 
 104:src/../h/riscv.hpp ****     static void w_a0_stack(long a0);
 105:src/../h/riscv.hpp **** 
 106:src/../h/riscv.hpp ****     // supervisor trap
 107:src/../h/riscv.hpp ****     static void supervisorTrap();
 108:src/../h/riscv.hpp **** 
 109:src/../h/riscv.hpp **** private:
 110:src/../h/riscv.hpp **** 
 111:src/../h/riscv.hpp ****     // supervisor trap handler
 112:src/../h/riscv.hpp ****     static void handleSupervisorTrap();
 113:src/../h/riscv.hpp **** 
 114:src/../h/riscv.hpp **** };
 115:src/../h/riscv.hpp **** 
 116:src/../h/riscv.hpp **** inline uint64 Riscv::r_scause() {
 117:src/../h/riscv.hpp ****     uint64 volatile scause;
 118:src/../h/riscv.hpp ****     __asm__ volatile ("csrr %[scause], scause" : [scause] "=r"(scause));
 119:src/../h/riscv.hpp ****     return scause;
 120:src/../h/riscv.hpp **** }
 121:src/../h/riscv.hpp **** 
 122:src/../h/riscv.hpp **** inline void Riscv::w_scause(uint64 scause) {
 123:src/../h/riscv.hpp ****     __asm__ volatile ("csrw scause, %[scause]" : : [scause] "r"(scause));
 124:src/../h/riscv.hpp **** }
 125:src/../h/riscv.hpp **** 
 126:src/../h/riscv.hpp **** inline uint64 Riscv::r_sepc() {
 127:src/../h/riscv.hpp ****     uint64 volatile sepc;
 128:src/../h/riscv.hpp ****     __asm__ volatile ("csrr %[sepc], sepc" : [sepc] "=r"(sepc));
 129:src/../h/riscv.hpp ****     return sepc;
 130:src/../h/riscv.hpp **** }
 131:src/../h/riscv.hpp **** 
 132:src/../h/riscv.hpp **** inline void Riscv::w_sepc(uint64 sepc) {
 133:src/../h/riscv.hpp ****     __asm__ volatile ("csrw sepc, %[sepc]" : : [sepc] "r"(sepc));
 134:src/../h/riscv.hpp **** }
 135:src/../h/riscv.hpp **** 
 136:src/../h/riscv.hpp **** inline uint64 Riscv::r_stvec() {
 137:src/../h/riscv.hpp ****     uint64 volatile stvec;
 138:src/../h/riscv.hpp ****     __asm__ volatile ("csrr %[stvec], stvec" : [stvec] "=r"(stvec));
 139:src/../h/riscv.hpp ****     return stvec;
 140:src/../h/riscv.hpp **** }
 141:src/../h/riscv.hpp **** 
GAS LISTING /tmp/cciNAykN.s 			page 5


 142:src/../h/riscv.hpp **** inline void Riscv::w_stvec(uint64 stvec) {
 143:src/../h/riscv.hpp ****     __asm__ volatile ("csrw stvec, %[stvec]" : : [stvec] "r"(stvec));
 144:src/../h/riscv.hpp **** }
 145:src/../h/riscv.hpp **** 
 146:src/../h/riscv.hpp **** inline uint64 Riscv::r_stval() {
 147:src/../h/riscv.hpp ****     uint64 volatile stval;
 148:src/../h/riscv.hpp ****     __asm__ volatile ("csrr %[stval], stval" : [stval] "=r"(stval));
 149:src/../h/riscv.hpp ****     return stval;
 150:src/../h/riscv.hpp **** }
 151:src/../h/riscv.hpp **** 
 152:src/../h/riscv.hpp **** inline void Riscv::w_stval(uint64 stval) {
 153:src/../h/riscv.hpp ****     __asm__ volatile ("csrw stval, %[stval]" : : [stval] "r"(stval));
 154:src/../h/riscv.hpp **** }
 155:src/../h/riscv.hpp **** 
 156:src/../h/riscv.hpp **** inline void Riscv::ms_sip(uint64 mask) {
 157:src/../h/riscv.hpp ****     __asm__ volatile ("csrs sip, %[mask]" : : [mask] "r"(mask));
 158:src/../h/riscv.hpp **** }
 159:src/../h/riscv.hpp **** 
 160:src/../h/riscv.hpp **** inline void Riscv::mc_sip(uint64 mask) {
 161:src/../h/riscv.hpp ****     __asm__ volatile ("csrc sip, %[mask]" : : [mask] "r"(mask));
 162:src/../h/riscv.hpp **** }
 163:src/../h/riscv.hpp **** 
 164:src/../h/riscv.hpp **** inline uint64 Riscv::r_sip() {
 165:src/../h/riscv.hpp ****     uint64 volatile sip;
 166:src/../h/riscv.hpp ****     __asm__ volatile ("csrr %[sip], sip" : [sip] "=r"(sip));
 167:src/../h/riscv.hpp ****     return sip;
 168:src/../h/riscv.hpp **** }
 169:src/../h/riscv.hpp **** 
 170:src/../h/riscv.hpp **** inline void Riscv::w_sip(uint64 sip) {
 171:src/../h/riscv.hpp ****     __asm__ volatile ("csrw sip, %[sip]" : : [sip] "r"(sip));
 172:src/../h/riscv.hpp **** }
 173:src/../h/riscv.hpp **** 
 174:src/../h/riscv.hpp **** inline void Riscv::ms_sstatus(uint64 mask) {
 175:src/../h/riscv.hpp ****     __asm__ volatile ("csrs sstatus, %[mask]" : : [mask] "r"(mask));
 176:src/../h/riscv.hpp **** }
 177:src/../h/riscv.hpp **** 
 178:src/../h/riscv.hpp **** inline void Riscv::mc_sstatus(uint64 mask) {
 179:src/../h/riscv.hpp ****     __asm__ volatile ("csrc sstatus, %[mask]" : : [mask] "r"(mask));
 180:src/../h/riscv.hpp **** }
 181:src/../h/riscv.hpp **** 
 182:src/../h/riscv.hpp **** inline uint64 Riscv::r_sstatus() {
 183:src/../h/riscv.hpp ****     uint64 volatile sstatus;
 184:src/../h/riscv.hpp ****     __asm__ volatile ("csrr %[sstatus], sstatus" : [sstatus] "=r"(sstatus));
 185:src/../h/riscv.hpp ****     return sstatus;
 186:src/../h/riscv.hpp **** }
 187:src/../h/riscv.hpp **** 
 188:src/../h/riscv.hpp **** inline void Riscv::w_sstatus(uint64 sstatus) {
 189:src/../h/riscv.hpp ****     __asm__ volatile ("csrw sstatus, %[sstatus]" : : [sstatus] "r"(sstatus));
 190:src/../h/riscv.hpp **** }
 191:src/../h/riscv.hpp **** 
 192:src/../h/riscv.hpp **** inline void Riscv::w_a0(long a0) {
 193:src/../h/riscv.hpp ****     __asm__ volatile ("mv a0, %0" : : "r"(a0));
 194:src/../h/riscv.hpp **** }
 195:src/../h/riscv.hpp **** 
 196:src/../h/riscv.hpp **** inline long Riscv::r_a0() {
 197:src/../h/riscv.hpp ****     long volatile a0;
 198:src/../h/riscv.hpp ****     __asm__ volatile ("ld %0, 10*8(fp)" : "=r"(a0));
GAS LISTING /tmp/cciNAykN.s 			page 6


 199:src/../h/riscv.hpp ****     return a0;
 200:src/../h/riscv.hpp **** }
 201:src/../h/riscv.hpp **** 
 202:src/../h/riscv.hpp **** inline void Riscv::w_a1(uint64 a1) {
 203:src/../h/riscv.hpp ****     __asm__ volatile ("mv a1, %0" : : "r"(a1));
 204:src/../h/riscv.hpp **** }
 205:src/../h/riscv.hpp **** 
 206:src/../h/riscv.hpp **** inline uint64 Riscv::r_a1() {
 207:src/../h/riscv.hpp ****     uint64 volatile a1;
  78              		.loc 2 207 5
 208:src/../h/riscv.hpp ****     __asm__ volatile ("ld %0, 11*8(fp)" : "=r"(a1));
  79              		.loc 2 208 5
  80              		.loc 2 208 52 is_stmt 0
  81              	#APP
  82              	# 208 "src/../h/riscv.hpp" 1
 209              	    return a1;
  83              		ld a5, 11*8(fp)
  84              	# 0 "" 2
  85              	#NO_APP
  86 0048 2330F4FA 		sd	a5,-96(s0)
  87              		.loc 2 209 5 is_stmt 1
  88              		.loc 2 209 12 is_stmt 0
  89 004c 033904FA 		ld	s2,-96(s0)
  90              	.LVL0:
  91              	.LBE94:
  92              	.LBE93:
  14:src/riscv.cpp ****     uint64 a2 = r_a2();
  93              		.loc 1 14 5 is_stmt 1
  94              	.LBB95:
  95              	.LBB96:
 210:src/../h/riscv.hpp **** }
 211:src/../h/riscv.hpp **** 
 212:src/../h/riscv.hpp **** inline void Riscv::w_a2(uint64 a2) {
 213:src/../h/riscv.hpp ****     __asm__ volatile ("mv a2, %0" : : "r"(a2));
 214:src/../h/riscv.hpp **** }
 215:src/../h/riscv.hpp **** 
 216:src/../h/riscv.hpp **** inline uint64 Riscv::r_a2() {
 217:src/../h/riscv.hpp ****     uint64 volatile a2;
  96              		.loc 2 217 5
 218:src/../h/riscv.hpp ****     __asm__ volatile ("ld %0, 12*8(fp)" : "=r"(a2));
  97              		.loc 2 218 5
  98              		.loc 2 218 52 is_stmt 0
  99              	#APP
 100              	# 218 "src/../h/riscv.hpp" 1
 219              	    return a2;
 101              		ld a5, 12*8(fp)
 102              	# 0 "" 2
 103              	#NO_APP
 104 0054 233CF4F8 		sd	a5,-104(s0)
 105              		.loc 2 219 5 is_stmt 1
 106              		.loc 2 219 12 is_stmt 0
 107 0058 833984F9 		ld	s3,-104(s0)
 108              	.LVL1:
 109              	.LBE96:
 110              	.LBE95:
  15:src/riscv.cpp ****     uint64 a3 = r_a3();
 111              		.loc 1 15 5 is_stmt 1
GAS LISTING /tmp/cciNAykN.s 			page 7


 112              	.LBB97:
 113              	.LBB98:
 220:src/../h/riscv.hpp **** }
 221:src/../h/riscv.hpp **** 
 222:src/../h/riscv.hpp **** inline void Riscv::w_a3(uint64 a3) {
 223:src/../h/riscv.hpp ****     __asm__ volatile ("mv a3, %0" : : "r"(a3));
 224:src/../h/riscv.hpp **** }
 225:src/../h/riscv.hpp **** 
 226:src/../h/riscv.hpp **** inline uint64 Riscv::r_a3() {
 227:src/../h/riscv.hpp ****     uint64 volatile a3;
 114              		.loc 2 227 5
 228:src/../h/riscv.hpp ****     __asm__ volatile ("ld %0, 13*8(fp)" : "=r"(a3));
 115              		.loc 2 228 5
 116              		.loc 2 228 52 is_stmt 0
 117              	#APP
 118              	# 228 "src/../h/riscv.hpp" 1
 229              	    return a3;
 119              		ld a5, 13*8(fp)
 120              	# 0 "" 2
 121              	#NO_APP
 122 0060 2338F4F8 		sd	a5,-112(s0)
 123              		.loc 2 229 5 is_stmt 1
 124              		.loc 2 229 12 is_stmt 0
 125 0064 033504F9 		ld	a0,-112(s0)
 126              	.LVL2:
 127              	.LBE98:
 128              	.LBE97:
  16:src/riscv.cpp ****     uint64 a4 = r_a4();
 129              		.loc 1 16 5 is_stmt 1
 130              	.LBB99:
 131              	.LBB100:
 230:src/../h/riscv.hpp **** }
 231:src/../h/riscv.hpp **** 
 232:src/../h/riscv.hpp **** inline void Riscv::w_a4(uint64 a4) {
 233:src/../h/riscv.hpp ****     __asm__ volatile ("mv a4, %0" : : "r"(a4));
 234:src/../h/riscv.hpp **** }
 235:src/../h/riscv.hpp **** 
 236:src/../h/riscv.hpp **** inline uint64 Riscv::r_a4() {
 237:src/../h/riscv.hpp ****     uint64 volatile a4;
 132              		.loc 2 237 5
 238:src/../h/riscv.hpp ****     __asm__ volatile ("ld %0, 14*8(fp)" : "=r"(a4));
 133              		.loc 2 238 5
 134              		.loc 2 238 52 is_stmt 0
 135              	#APP
 136              	# 238 "src/../h/riscv.hpp" 1
 239              	    return a4;
 137              		ld a5, 14*8(fp)
 138              	# 0 "" 2
 139              	#NO_APP
 140 006c 2334F4F8 		sd	a5,-120(s0)
 141              		.loc 2 239 5 is_stmt 1
 142              		.loc 2 239 12 is_stmt 0
 143 0070 033A84F8 		ld	s4,-120(s0)
 144              	.LVL3:
 145              	.LBE100:
 146              	.LBE99:
  17:src/riscv.cpp ****     long a0 = r_a0();
GAS LISTING /tmp/cciNAykN.s 			page 8


 147              		.loc 1 17 5 is_stmt 1
 148              	.LBB101:
 149              	.LBB102:
 197:src/../h/riscv.hpp ****     __asm__ volatile ("ld %0, 10*8(fp)" : "=r"(a0));
 150              		.loc 2 197 5
 198:src/../h/riscv.hpp ****     return a0;
 151              		.loc 2 198 5
 198:src/../h/riscv.hpp ****     return a0;
 152              		.loc 2 198 52 is_stmt 0
 153              	#APP
 154              	# 198 "src/../h/riscv.hpp" 1
 155              		ld a5, 10*8(fp)
 156              	# 0 "" 2
 157              	#NO_APP
 158 0078 2330F4F8 		sd	a5,-128(s0)
 199:src/../h/riscv.hpp **** }
 159              		.loc 2 199 5 is_stmt 1
 199:src/../h/riscv.hpp **** }
 160              		.loc 2 199 12 is_stmt 0
 161 007c 833704F8 		ld	a5,-128(s0)
 162              	.LVL4:
 163              	.LBE102:
 164              	.LBE101:
  18:src/riscv.cpp **** 
  19:src/riscv.cpp ****     uint64 scause = r_scause();
 165              		.loc 1 19 5 is_stmt 1
 166              	.LBB103:
 167              	.LBB104:
 117:src/../h/riscv.hpp ****     __asm__ volatile ("csrr %[scause], scause" : [scause] "=r"(scause));
 168              		.loc 2 117 5
 118:src/../h/riscv.hpp ****     return scause;
 169              		.loc 2 118 5
 118:src/../h/riscv.hpp ****     return scause;
 170              		.loc 2 118 72 is_stmt 0
 171              	#APP
 172              	# 118 "src/../h/riscv.hpp" 1
 173              		csrr a4, scause
 174              	# 0 "" 2
 175              	#NO_APP
 176 0084 233CE4F6 		sd	a4,-136(s0)
 119:src/../h/riscv.hpp **** }
 177              		.loc 2 119 5 is_stmt 1
 119:src/../h/riscv.hpp **** }
 178              		.loc 2 119 12 is_stmt 0
 179 0088 033784F7 		ld	a4,-136(s0)
 180              	.LVL5:
 181              	.LBE104:
 182              	.LBE103:
  20:src/riscv.cpp **** 
  21:src/riscv.cpp ****     if (scause == 0x0000000000000008UL || scause == 0x0000000000000009UL) {
 183              		.loc 1 21 5 is_stmt 1
 184              	.LBB105:
 185              		.loc 1 21 40 is_stmt 0
 186 008c 130687FF 		addi	a2,a4,-8
 187              		.loc 1 21 5
 188 0090 93061000 		li	a3,1
 189 0094 63FEC606 		bleu	a2,a3,.L30
GAS LISTING /tmp/cciNAykN.s 			page 9


  22:src/riscv.cpp ****         // interrupt: no; cause code: environment call from U-mode(8) or S-mode(9)
  23:src/riscv.cpp **** 
  24:src/riscv.cpp ****         uint64 sepc = r_sepc() + 4; // jer pc pokazuje na trenutnu instrukciju tj ecall a treba na 
  25:src/riscv.cpp ****         uint64 sstatus = r_sstatus(); // cuva vrednost statusnog registra
  26:src/riscv.cpp **** 
  27:src/riscv.cpp **** 
  28:src/riscv.cpp ****         if(a0 == 0x01) { // mem_alloc
  29:src/riscv.cpp ****             void* ptr = __mem_alloc((size_t)a1);
  30:src/riscv.cpp ****             w_a0_stack((long)ptr);
  31:src/riscv.cpp ****         }
  32:src/riscv.cpp ****         else if(a0 == 0x02) { // mem_free
  33:src/riscv.cpp ****             a0 = __mem_free((void *)a1);
  34:src/riscv.cpp ****             w_a0_stack(a0);
  35:src/riscv.cpp ****         }
  36:src/riscv.cpp ****         else if(a0 == 0x11) { //thread_create
  37:src/riscv.cpp ****             TCB *handle = TCB::createThread((void (*)(void*))(a3), (void*)a2, (uint64*)a1);
  38:src/riscv.cpp **** 
  39:src/riscv.cpp ****             if(!handle) w_a0_stack(-1);
  40:src/riscv.cpp ****             else {
  41:src/riscv.cpp ****                 TCB** h = (TCB**)a4;
  42:src/riscv.cpp ****                 *(h) = handle;
  43:src/riscv.cpp ****                 w_a0_stack(0);
  44:src/riscv.cpp ****             }
  45:src/riscv.cpp ****         }
  46:src/riscv.cpp ****         else if(a0 == 0x12) { // thread_exit
  47:src/riscv.cpp ****             a0 = TCB::exit();
  48:src/riscv.cpp ****             w_a0_stack(a0);
  49:src/riscv.cpp ****         }
  50:src/riscv.cpp ****         else if(a0 == 0x13) { // thread_dispatch
  51:src/riscv.cpp ****             TCB::dispatch();
  52:src/riscv.cpp ****         }
  53:src/riscv.cpp ****         else if(a0 == 0x14) { //thread_start
  54:src/riscv.cpp ****             thread_t thread = (thread_t)a1;
  55:src/riscv.cpp ****             if(!thread) w_a0_stack(-1);
  56:src/riscv.cpp ****             else {
  57:src/riscv.cpp ****                 a0 = thread->start();
  58:src/riscv.cpp ****                 w_a0_stack(a0);
  59:src/riscv.cpp ****             }
  60:src/riscv.cpp ****         }
  61:src/riscv.cpp ****         else if (a0 == 0x15) { //thread_initialize
  62:src/riscv.cpp ****             TCB *handle = TCB::initializeThread((void (*)(void*))(a3), (void*)a2, (uint64*)a1);
  63:src/riscv.cpp **** 
  64:src/riscv.cpp ****             if(!handle) w_a0_stack(-1);
  65:src/riscv.cpp ****             else {
  66:src/riscv.cpp ****                 TCB** h = (TCB**)a4;
  67:src/riscv.cpp ****                 *(h) = handle;
  68:src/riscv.cpp ****                 w_a0_stack(0);
  69:src/riscv.cpp ****             }
  70:src/riscv.cpp ****         }
  71:src/riscv.cpp ****         else if(a0 == 0x21) { // sem_open
  72:src/riscv.cpp ****             _sem* handle = new _sem((unsigned)a1);
  73:src/riscv.cpp ****             _sem** h = (_sem**)a2;
  74:src/riscv.cpp ****             *(h) = handle;
  75:src/riscv.cpp ****             w_a0_stack(0);
  76:src/riscv.cpp ****         }
  77:src/riscv.cpp ****         else if(a0 == 0x22) { // sem_close
  78:src/riscv.cpp ****             _sem* sem = (_sem*)a1;
GAS LISTING /tmp/cciNAykN.s 			page 10


  79:src/riscv.cpp **** 
  80:src/riscv.cpp ****             if(!sem) w_a0_stack(-1);
  81:src/riscv.cpp ****             else {
  82:src/riscv.cpp ****                 delete sem;
  83:src/riscv.cpp ****                 w_a0_stack(0);
  84:src/riscv.cpp ****             }
  85:src/riscv.cpp ****         }
  86:src/riscv.cpp ****         else if(a0 == 0x23) { // sem_wait
  87:src/riscv.cpp ****             _sem* sem = (_sem*)a1;
  88:src/riscv.cpp **** 
  89:src/riscv.cpp ****             if(!sem) w_a0_stack(-1);
  90:src/riscv.cpp ****             else {
  91:src/riscv.cpp ****                 a0 = sem->wait();
  92:src/riscv.cpp ****                 w_a0_stack(a0);
  93:src/riscv.cpp ****             }
  94:src/riscv.cpp ****         }
  95:src/riscv.cpp ****         else if(a0 == 0x24) { // sem_signal
  96:src/riscv.cpp ****             _sem* sem = (_sem*)a1;
  97:src/riscv.cpp **** 
  98:src/riscv.cpp ****             if(!sem) w_a0_stack(-1);
  99:src/riscv.cpp ****             else {
 100:src/riscv.cpp ****                 a0 = sem->signal();
 101:src/riscv.cpp ****                 w_a0_stack(a0);
 102:src/riscv.cpp ****             }
 103:src/riscv.cpp ****         }
 104:src/riscv.cpp ****         else if(a0 == 0x41) { // getc
 105:src/riscv.cpp ****             char c = __getc();
 106:src/riscv.cpp ****             w_a0_stack((long)c);
 107:src/riscv.cpp ****         }
 108:src/riscv.cpp ****         else if(a0 == 0x42) { // putc
 109:src/riscv.cpp ****             __putc((char)a1);
 110:src/riscv.cpp ****         }
 111:src/riscv.cpp **** 
 112:src/riscv.cpp ****         w_sstatus(sstatus); // restauracija statusnog registra
 113:src/riscv.cpp ****         w_sepc(sepc); // restauracija pc registra
 114:src/riscv.cpp **** 
 115:src/riscv.cpp ****     } else if (scause == 0x8000000000000001UL) {
 190              		.loc 1 115 12 is_stmt 1
 191 0098 9307F0FF 		li	a5,-1
 192              	.LVL6:
 193 009c 9397F703 		slli	a5,a5,63
 194 00a0 93871700 		addi	a5,a5,1
 195 00a4 6304F72A 		beq	a4,a5,.L31
 116:src/riscv.cpp ****         // interrupt: yes; cause code: supervisor software interrupt (CLINT; machine timer interrup
 117:src/riscv.cpp ****         /*TCB::timeSliceCounter++;
 118:src/riscv.cpp ****         if (TCB::timeSliceCounter >= TCB::running->getTimeSlice())
 119:src/riscv.cpp ****         {
 120:src/riscv.cpp ****             uint64 sepc = r_sepc();
 121:src/riscv.cpp ****             uint64 sstatus = r_sstatus();
 122:src/riscv.cpp **** 
 123:src/riscv.cpp ****             TCB::dispatch();
 124:src/riscv.cpp **** 
 125:src/riscv.cpp ****             w_sstatus(sstatus);
 126:src/riscv.cpp ****             w_sepc(sepc);
 127:src/riscv.cpp ****         }*/
 128:src/riscv.cpp ****         mc_sip(SIP_SSIP);
 129:src/riscv.cpp ****     } else if (scause == 0x8000000000000009UL) {
GAS LISTING /tmp/cciNAykN.s 			page 11


 196              		.loc 1 129 12
 197 00a8 9307F0FF 		li	a5,-1
 198 00ac 9397F703 		slli	a5,a5,63
 199 00b0 93879700 		addi	a5,a5,9
 200 00b4 6302F72A 		beq	a4,a5,.L32
 130:src/riscv.cpp ****         // interrupt: yes; cause code: supervisor external interrupt (PLIC; could be keyboard)
 131:src/riscv.cpp ****         console_handler();
 132:src/riscv.cpp ****     } else {
 133:src/riscv.cpp ****         // unexpected trap cause
 134:src/riscv.cpp ****         printInt(scause);
 201              		.loc 1 134 9
 202              		.loc 1 134 17 is_stmt 0
 203 00b8 13060000 		li	a2,0
 204 00bc 9305A000 		li	a1,10
 205 00c0 1B050700 		sext.w	a0,a4
 206              	.LVL7:
 207              	.LEHB0:
 208 00c4 97000000 		call	_Z8printIntiii@plt
 208      E7800000 
 209              	.LVL8:
 135:src/riscv.cpp ****         printString("\n");
 210              		.loc 1 135 9 is_stmt 1
 211              		.loc 1 135 20 is_stmt 0
 212 00cc 17050000 		lla	a0,.LC0
 212      13050500 
 213 00d4 97000000 		call	_Z11printStringPKc@plt
 213      E7800000 
 214              	.LVL9:
 136:src/riscv.cpp ****         printInt(r_sepc());
 215              		.loc 1 136 9 is_stmt 1
 216              	.LBB106:
 217              	.LBB107:
 127:src/../h/riscv.hpp ****     __asm__ volatile ("csrr %[sepc], sepc" : [sepc] "=r"(sepc));
 218              		.loc 2 127 5
 128:src/../h/riscv.hpp ****     return sepc;
 219              		.loc 2 128 5
 128:src/../h/riscv.hpp ****     return sepc;
 220              		.loc 2 128 64 is_stmt 0
 221              	#APP
 222              	# 128 "src/../h/riscv.hpp" 1
 223              		csrr a5, sepc
 224              	# 0 "" 2
 225              	#NO_APP
 226 00e0 233CF4FA 		sd	a5,-72(s0)
 129:src/../h/riscv.hpp **** }
 227              		.loc 2 129 5 is_stmt 1
 129:src/../h/riscv.hpp **** }
 228              		.loc 2 129 12 is_stmt 0
 229 00e4 033584FB 		ld	a0,-72(s0)
 230              	.LBE107:
 231              	.LBE106:
 232              		.loc 1 136 17
 233 00e8 13060000 		li	a2,0
 234 00ec 9305A000 		li	a1,10
 235 00f0 1B050500 		sext.w	a0,a0
 236 00f4 97000000 		call	_Z8printIntiii@plt
 236      E7800000 
GAS LISTING /tmp/cciNAykN.s 			page 12


 237              	.LVL10:
 137:src/riscv.cpp ****         printString("\n");
 238              		.loc 1 137 9 is_stmt 1
 239              		.loc 1 137 20 is_stmt 0
 240 00fc 17050000 		lla	a0,.LC0
 240      13050500 
 241 0104 97000000 		call	_Z11printStringPKc@plt
 241      E7800000 
 242              	.LVL11:
 243              	.LBE105:
 138:src/riscv.cpp ****     }
 139:src/riscv.cpp **** }...
 244              		.loc 1 139 1
 245 010c 6F00000B 		j	.L3
 246              	.LVL12:
 247              	.L30:
 248              	.LBB284:
 249              	.LBB108:
  24:src/riscv.cpp ****         uint64 sepc = r_sepc() + 4; // jer pc pokazuje na trenutnu instrukciju tj ecall a treba na 
 250              		.loc 1 24 9 is_stmt 1
 251              	.LBB109:
 252              	.LBB110:
 127:src/../h/riscv.hpp ****     __asm__ volatile ("csrr %[sepc], sepc" : [sepc] "=r"(sepc));
 253              		.loc 2 127 5
 128:src/../h/riscv.hpp ****     return sepc;
 254              		.loc 2 128 5
 128:src/../h/riscv.hpp ****     return sepc;
 255              		.loc 2 128 64 is_stmt 0
 256              	#APP
 257              	# 128 "src/../h/riscv.hpp" 1
 258              		csrr a4, sepc
 259              	# 0 "" 2
 260              	.LVL13:
 261              	#NO_APP
 262 0114 2338E4FA 		sd	a4,-80(s0)
 129:src/../h/riscv.hpp **** }
 263              		.loc 2 129 5 is_stmt 1
 129:src/../h/riscv.hpp **** }
 264              		.loc 2 129 12 is_stmt 0
 265 0118 833404FB 		ld	s1,-80(s0)
 266              	.LBE110:
 267              	.LBE109:
  24:src/riscv.cpp ****         uint64 sepc = r_sepc() + 4; // jer pc pokazuje na trenutnu instrukciju tj ecall a treba na 
 268              		.loc 1 24 34
 269 011c 93844400 		addi	s1,s1,4
 270              	.LVL14:
  25:src/riscv.cpp ****         uint64 sstatus = r_sstatus(); // cuva vrednost statusnog registra
 271              		.loc 1 25 9 is_stmt 1
 272              	.LBB111:
 273              	.LBB112:
 183:src/../h/riscv.hpp ****     __asm__ volatile ("csrr %[sstatus], sstatus" : [sstatus] "=r"(sstatus));
 274              		.loc 2 183 5
 184:src/../h/riscv.hpp ****     return sstatus;
 275              		.loc 2 184 5
 184:src/../h/riscv.hpp ****     return sstatus;
 276              		.loc 2 184 76 is_stmt 0
 277              	#APP
GAS LISTING /tmp/cciNAykN.s 			page 13


 278              	# 184 "src/../h/riscv.hpp" 1
 279              		csrr a4, sstatus
 280              	# 0 "" 2
 281              	#NO_APP
 282 0124 2334E4FA 		sd	a4,-88(s0)
 185:src/../h/riscv.hpp **** }
 283              		.loc 2 185 5 is_stmt 1
 185:src/../h/riscv.hpp **** }
 284              		.loc 2 185 12 is_stmt 0
 285 0128 833A84FA 		ld	s5,-88(s0)
 286              	.LVL15:
 287              	.LBE112:
 288              	.LBE111:
  28:src/riscv.cpp ****         if(a0 == 0x01) { // mem_alloc
 289              		.loc 1 28 9 is_stmt 1
 290              	.LBB113:
 291 012c 13071000 		li	a4,1
 292 0130 638AE706 		beq	a5,a4,.L33
 293              	.LBE113:
 294              	.LBE108:
 295              	.LBE284:
  32:src/riscv.cpp ****         else if(a0 == 0x02) { // mem_free
 296              		.loc 1 32 14
 297              	.LBB285:
 298              	.LBB269:
 299              	.LBB252:
 300              	.LBB114:
 301 0134 13072000 		li	a4,2
 302 0138 6384E70A 		beq	a5,a4,.L34
 303              	.LBE114:
 304              	.LBE252:
 305              	.LBE269:
 306              	.LBE285:
  36:src/riscv.cpp ****         else if(a0 == 0x11) { //thread_create
 307              		.loc 1 36 14
 308              	.LBB286:
 309              	.LBB270:
 310              	.LBB253:
 311              	.LBB237:
 312              	.LBB115:
 313 013c 13071001 		li	a4,17
 314 0140 638AE70A 		beq	a5,a4,.L35
 315              	.LBE115:
 316              	.LBE237:
 317              	.LBE253:
 318              	.LBE270:
 319              	.LBE286:
  46:src/riscv.cpp ****         else if(a0 == 0x12) { // thread_exit
 320              		.loc 1 46 14
 321              	.LBB287:
 322              	.LBB271:
 323              	.LBB254:
 324              	.LBB238:
 325              	.LBB224:
 326              	.LBB116:
 327 0144 13072001 		li	a4,18
 328 0148 638EE70C 		beq	a5,a4,.L36
GAS LISTING /tmp/cciNAykN.s 			page 14


 329              	.LBE116:
 330              	.LBE224:
 331              	.LBE238:
 332              	.LBE254:
 333              	.LBE271:
 334              	.LBE287:
  50:src/riscv.cpp ****         else if(a0 == 0x13) { // thread_dispatch
 335              		.loc 1 50 14
 336              	.LBB288:
 337              	.LBB272:
 338              	.LBB255:
 339              	.LBB239:
 340              	.LBB225:
 341              	.LBB207:
 342              	.LBB117:
 343 014c 13073001 		li	a4,19
 344 0150 6382E70E 		beq	a5,a4,.L37
 345              	.LBE117:
 346              	.LBE207:
 347              	.LBE225:
 348              	.LBE239:
 349              	.LBE255:
 350              	.LBE272:
 351              	.LBE288:
  53:src/riscv.cpp ****         else if(a0 == 0x14) { //thread_start
 352              		.loc 1 53 14
 353              	.LBB289:
 354              	.LBB273:
 355              	.LBB256:
 356              	.LBB240:
 357              	.LBB226:
 358              	.LBB208:
 359              	.LBB196:
 360              	.LBB118:
 361 0154 13074001 		li	a4,20
 362 0158 6384E70E 		beq	a5,a4,.L38
 363              	.LBE118:
 364              	.LBE196:
 365              	.LBE208:
 366              	.LBE226:
 367              	.LBE240:
 368              	.LBE256:
 369              	.LBE273:
 370              	.LBE289:
  61:src/riscv.cpp ****         else if (a0 == 0x15) { //thread_initialize
 371              		.loc 1 61 14
 372              	.LBB290:
 373              	.LBB274:
 374              	.LBB257:
 375              	.LBB241:
 376              	.LBB227:
 377              	.LBB209:
 378              	.LBB197:
 379              	.LBB188:
 380              	.LBB119:
 381 015c 13075001 		li	a4,21
 382 0160 6382E710 		beq	a5,a4,.L39
GAS LISTING /tmp/cciNAykN.s 			page 15


 383              	.LBE119:
 384              	.LBE188:
 385              	.LBE197:
 386              	.LBE209:
 387              	.LBE227:
 388              	.LBE241:
 389              	.LBE257:
 390              	.LBE274:
 391              	.LBE290:
  71:src/riscv.cpp ****         else if(a0 == 0x21) { // sem_open
 392              		.loc 1 71 14
 393              	.LBB291:
 394              	.LBB275:
 395              	.LBB258:
 396              	.LBB242:
 397              	.LBB228:
 398              	.LBB210:
 399              	.LBB198:
 400              	.LBB189:
 401              	.LBB176:
 402              	.LBB120:
 403 0164 13071002 		li	a4,33
 404 0168 6386E712 		beq	a5,a4,.L40
 405              	.LBE120:
 406              	.LBE176:
 407              	.LBE189:
 408              	.LBE198:
 409              	.LBE210:
 410              	.LBE228:
 411              	.LBE242:
 412              	.LBE258:
 413              	.LBE275:
 414              	.LBE291:
  77:src/riscv.cpp ****         else if(a0 == 0x22) { // sem_close
 415              		.loc 1 77 14
 416              	.LBB292:
 417              	.LBB276:
 418              	.LBB259:
 419              	.LBB243:
 420              	.LBB229:
 421              	.LBB211:
 422              	.LBB199:
 423              	.LBB190:
 424              	.LBB177:
 425              	.LBB163:
 426              	.LBB121:
 427 016c 13072002 		li	a4,34
 428 0170 6388E714 		beq	a5,a4,.L41
 429              	.LBE121:
 430              	.LBE163:
 431              	.LBE177:
 432              	.LBE190:
 433              	.LBE199:
 434              	.LBE211:
 435              	.LBE229:
 436              	.LBE243:
 437              	.LBE259:
GAS LISTING /tmp/cciNAykN.s 			page 16


 438              	.LBE276:
 439              	.LBE292:
  86:src/riscv.cpp ****         else if(a0 == 0x23) { // sem_wait
 440              		.loc 1 86 14
 441              	.LBB293:
 442              	.LBB277:
 443              	.LBB260:
 444              	.LBB244:
 445              	.LBB230:
 446              	.LBB212:
 447              	.LBB200:
 448              	.LBB191:
 449              	.LBB178:
 450              	.LBB164:
 451              	.LBB151:
 452              	.LBB122:
 453 0174 13073002 		li	a4,35
 454 0178 638EE716 		beq	a5,a4,.L42
 455              	.LBE122:
 456              	.LBE151:
 457              	.LBE164:
 458              	.LBE178:
 459              	.LBE191:
 460              	.LBE200:
 461              	.LBE212:
 462              	.LBE230:
 463              	.LBE244:
 464              	.LBE260:
 465              	.LBE277:
 466              	.LBE293:
  95:src/riscv.cpp ****         else if(a0 == 0x24) { // sem_signal
 467              		.loc 1 95 14
 468              	.LBB294:
 469              	.LBB278:
 470              	.LBB261:
 471              	.LBB245:
 472              	.LBB231:
 473              	.LBB213:
 474              	.LBB201:
 475              	.LBB192:
 476              	.LBB179:
 477              	.LBB165:
 478              	.LBB152:
 479              	.LBB141:
 480              	.LBB123:
 481 017c 13074002 		li	a4,36
 482 0180 638CE718 		beq	a5,a4,.L43
 483              	.LBE123:
 484              	.LBE141:
 485              	.LBE152:
 486              	.LBE165:
 487              	.LBE179:
 488              	.LBE192:
 489              	.LBE201:
 490              	.LBE213:
 491              	.LBE231:
 492              	.LBE245:
GAS LISTING /tmp/cciNAykN.s 			page 17


 493              	.LBE261:
 494              	.LBE278:
 495              	.LBE294:
 104:src/riscv.cpp ****         else if(a0 == 0x41) { // getc
 496              		.loc 1 104 14
 497              	.LBB295:
 498              	.LBB279:
 499              	.LBB262:
 500              	.LBB246:
 501              	.LBB232:
 502              	.LBB214:
 503              	.LBB202:
 504              	.LBB193:
 505              	.LBB180:
 506              	.LBB166:
 507              	.LBB153:
 508              	.LBB142:
 509              	.LBB134:
 510              	.LBB124:
 511 0184 13071004 		li	a4,65
 512 0188 638AE71A 		beq	a5,a4,.L44
 108:src/riscv.cpp ****         else if(a0 == 0x42) { // putc
 513              		.loc 1 108 14
 514 018c 13072004 		li	a4,66
 515 0190 6392E702 		bne	a5,a4,.L6
 109:src/riscv.cpp ****             __putc((char)a1);
 516              		.loc 1 109 13
 109:src/riscv.cpp ****             __putc((char)a1);
 517              		.loc 1 109 19 is_stmt 0
 518 0194 1375F90F 		andi	a0,s2,0xff
 519              	.LVL16:
 520 0198 97000000 		call	__putc@plt
 520      E7800000 
 521              	.LVL17:
 522 01a0 6F004001 		j	.L6
 523              	.LVL18:
 524              	.L33:
 525              	.LBE124:
 526              	.LBE134:
 527              	.LBE142:
 528              	.LBE153:
 529              	.LBE166:
 530              	.LBE180:
 531              	.LBE193:
 532              	.LBE202:
 533              	.LBE214:
 534              	.LBE232:
 535              	.LBE246:
 536              	.LBB247:
  29:src/riscv.cpp ****             void* ptr = __mem_alloc((size_t)a1);
 537              		.loc 1 29 13 is_stmt 1
  29:src/riscv.cpp ****             void* ptr = __mem_alloc((size_t)a1);
 538              		.loc 1 29 36 is_stmt 0
 539 01a4 13050900 		mv	a0,s2
 540              	.LVL19:
 541 01a8 97000000 		call	__mem_alloc@plt
 541      E7800000 
GAS LISTING /tmp/cciNAykN.s 			page 18


 542              	.LVL20:
  30:src/riscv.cpp ****             w_a0_stack((long)ptr);
 543              		.loc 1 30 13 is_stmt 1
 544              	.LBB248:
 545              	.LBB249:
 240:src/../h/riscv.hpp **** }
 241:src/../h/riscv.hpp **** 
 242:src/../h/riscv.hpp **** inline void Riscv::w_a0_stack(long a0) {
 243:src/../h/riscv.hpp ****     __asm__ volatile ("sd %0, 10*8(fp)" : : "r"(a0));
 546              		.loc 2 243 5
 547              		.loc 2 243 53 is_stmt 0
 548              	#APP
 549              	# 243 "src/../h/riscv.hpp" 1
 244              	}
 550              		sd a0, 10*8(fp)
 551              	# 0 "" 2
 552              	.LVL21:
 553              	#NO_APP
 554              	.L6:
 555              	.LBE249:
 556              	.LBE248:
 557              	.LBE247:
 558              	.LBE262:
 112:src/riscv.cpp ****         w_sstatus(sstatus); // restauracija statusnog registra
 559              		.loc 1 112 9 is_stmt 1
 560              	.LBB263:
 561              	.LBB264:
 189:src/../h/riscv.hpp **** }
 562              		.loc 2 189 5
 189:src/../h/riscv.hpp **** }
 563              		.loc 2 189 77 is_stmt 0
 564              	#APP
 565              	# 189 "src/../h/riscv.hpp" 1
 566              		csrw sstatus, s5
 567              	# 0 "" 2
 568              	.LVL22:
 569              	#NO_APP
 570              	.LBE264:
 571              	.LBE263:
 113:src/riscv.cpp ****         w_sepc(sepc); // restauracija pc registra
 572              		.loc 1 113 9 is_stmt 1
 573              	.LBB265:
 574              	.LBB266:
 133:src/../h/riscv.hpp **** }
 575              		.loc 2 133 5
 133:src/../h/riscv.hpp **** }
 576              		.loc 2 133 65 is_stmt 0
 577              	#APP
 578              	# 133 "src/../h/riscv.hpp" 1
 579              		csrw sepc, s1
 580              	# 0 "" 2
 581              	.LVL23:
 582              	#NO_APP
 583              	.L3:
 584              	.LBE266:
 585              	.LBE265:
 586              	.LBE279:
GAS LISTING /tmp/cciNAykN.s 			page 19


 587              	.LBE295:
 588              		.loc 1 139 1
 589 01bc 83308108 		ld	ra,136(sp)
 590              		.cfi_remember_state
 591              		.cfi_restore 1
 592 01c0 03340108 		ld	s0,128(sp)
 593              		.cfi_restore 8
 594              		.cfi_def_cfa 2, 144
 595 01c4 83348107 		ld	s1,120(sp)
 596              		.cfi_restore 9
 597 01c8 03390107 		ld	s2,112(sp)
 598              		.cfi_restore 18
 599              	.LVL24:
 600 01cc 83398106 		ld	s3,104(sp)
 601              		.cfi_restore 19
 602              	.LVL25:
 603 01d0 033A0106 		ld	s4,96(sp)
 604              		.cfi_restore 20
 605 01d4 833A8105 		ld	s5,88(sp)
 606              		.cfi_restore 21
 607 01d8 13010109 		addi	sp,sp,144
 608              		.cfi_def_cfa_offset 0
 609 01dc 67800000 		jr	ra
 610              	.LVL26:
 611              	.L34:
 612              		.cfi_restore_state
 613              	.LBB296:
 614              	.LBB280:
 615              	.LBB267:
 616              	.LBB250:
  33:src/riscv.cpp ****             a0 = __mem_free((void *)a1);
 617              		.loc 1 33 13 is_stmt 1
  33:src/riscv.cpp ****             a0 = __mem_free((void *)a1);
 618              		.loc 1 33 28 is_stmt 0
 619 01e0 13050900 		mv	a0,s2
 620              	.LVL27:
 621 01e4 97000000 		call	__mem_free@plt
 621      E7800000 
 622              	.LVL28:
  34:src/riscv.cpp ****             w_a0_stack(a0);
 623              		.loc 1 34 13 is_stmt 1
 624              	.LBB233:
 625              	.LBB234:
 243:src/../h/riscv.hpp **** }
 626              		.loc 2 243 5
 243:src/../h/riscv.hpp **** }
 627              		.loc 2 243 53 is_stmt 0
 628              	#APP
 629              	# 243 "src/../h/riscv.hpp" 1
 630              		sd a0, 10*8(fp)
 631              	# 0 "" 2
 632              		.loc 2 244 1
 633              	#NO_APP
 634 01f0 6FF05FFC 		j	.L6
 635              	.LVL29:
 636              	.L35:
 637              	.LBE234:
GAS LISTING /tmp/cciNAykN.s 			page 20


 638              	.LBE233:
 639              	.LBB235:
 640              	.LBB215:
  37:src/riscv.cpp ****             TCB *handle = TCB::createThread((void (*)(void*))(a3), (void*)a2, (uint64*)a1);
 641              		.loc 1 37 13 is_stmt 1
  37:src/riscv.cpp ****             TCB *handle = TCB::createThread((void (*)(void*))(a3), (void*)a2, (uint64*)a1);
 642              		.loc 1 37 44 is_stmt 0
 643 01f4 13060900 		mv	a2,s2
 644              	.LVL30:
 645 01f8 93850900 		mv	a1,s3
 646 01fc 97000000 		call	_ZN3TCB12createThreadEPFvPvES0_Pm@plt
 646      E7800000 
 647              	.LVL31:
  39:src/riscv.cpp ****             if(!handle) w_a0_stack(-1);
 648              		.loc 1 39 13 is_stmt 1
 649              	.LBB216:
 650 0204 630A0500 		beqz	a0,.L45
 651              	.LBB217:
  41:src/riscv.cpp ****                 TCB** h = (TCB**)a4;
 652              		.loc 1 41 17
 653              	.LVL32:
  42:src/riscv.cpp ****                 *(h) = handle;
 654              		.loc 1 42 17
  42:src/riscv.cpp ****                 *(h) = handle;
 655              		.loc 1 42 22 is_stmt 0
 656 0208 2330AA00 		sd	a0,0(s4)
  43:src/riscv.cpp ****                 w_a0_stack(0);
 657              		.loc 1 43 17 is_stmt 1
 658              	.LVL33:
 659              	.LBB218:
 660              	.LBB219:
 243:src/../h/riscv.hpp **** }
 661              		.loc 2 243 5
 243:src/../h/riscv.hpp **** }
 662              		.loc 2 243 53 is_stmt 0
 663 020c 93070000 		li	a5,0
 664              	#APP
 665              	# 243 "src/../h/riscv.hpp" 1
 666              		sd a5, 10*8(fp)
 667              	# 0 "" 2
 668              		.loc 2 244 1
 669              	#NO_APP
 670 0214 6FF01FFA 		j	.L6
 671              	.LVL34:
 672              	.L45:
 673              	.LBE219:
 674              	.LBE218:
 675              	.LBE217:
  39:src/riscv.cpp ****             if(!handle) w_a0_stack(-1);
 676              		.loc 1 39 25 is_stmt 1
 677              	.LBB220:
 678              	.LBB221:
 243:src/../h/riscv.hpp **** }
 679              		.loc 2 243 5
 243:src/../h/riscv.hpp **** }
 680              		.loc 2 243 53 is_stmt 0
 681 0218 9307F0FF 		li	a5,-1
GAS LISTING /tmp/cciNAykN.s 			page 21


 682              	#APP
 683              	# 243 "src/../h/riscv.hpp" 1
 684              		sd a5, 10*8(fp)
 685              	# 0 "" 2
 686              		.loc 2 244 1
 687              	#NO_APP
 688 0220 6FF05FF9 		j	.L6
 689              	.LVL35:
 690              	.L36:
 691              	.LBE221:
 692              	.LBE220:
 693              	.LBE216:
 694              	.LBE215:
 695              	.LBB222:
  47:src/riscv.cpp ****             a0 = TCB::exit();
 696              		.loc 1 47 13 is_stmt 1
  47:src/riscv.cpp ****             a0 = TCB::exit();
 697              		.loc 1 47 27 is_stmt 0
 698 0224 97000000 		call	_ZN3TCB4exitEv@plt
 698      E7800000 
 699              	.LVL36:
  48:src/riscv.cpp ****             w_a0_stack(a0);
 700              		.loc 1 48 13 is_stmt 1
 701              	.LBB203:
 702              	.LBB204:
 243:src/../h/riscv.hpp **** }
 703              		.loc 2 243 5
 243:src/../h/riscv.hpp **** }
 704              		.loc 2 243 53 is_stmt 0
 705              	#APP
 706              	# 243 "src/../h/riscv.hpp" 1
 707              		sd a0, 10*8(fp)
 708              	# 0 "" 2
 709              		.loc 2 244 1
 710              	#NO_APP
 711 0230 6FF05FF8 		j	.L6
 712              	.LVL37:
 713              	.L37:
 714              	.LBE204:
 715              	.LBE203:
 716              	.LBB205:
  51:src/riscv.cpp ****             TCB::dispatch();
 717              		.loc 1 51 13 is_stmt 1
  51:src/riscv.cpp ****             TCB::dispatch();
 718              		.loc 1 51 26 is_stmt 0
 719 0234 97000000 		call	_ZN3TCB8dispatchEv@plt
 719      E7800000 
 720              	.LVL38:
 721 023c 6FF09FF7 		j	.L6
 722              	.LVL39:
 723              	.L38:
 724              	.LBB194:
 725              	.LBB181:
  54:src/riscv.cpp ****             thread_t thread = (thread_t)a1;
 726              		.loc 1 54 13 is_stmt 1
  55:src/riscv.cpp ****             if(!thread) w_a0_stack(-1);
 727              		.loc 1 55 13
GAS LISTING /tmp/cciNAykN.s 			page 22


 728 0240 63180900 		bnez	s2,.L13
  55:src/riscv.cpp ****             if(!thread) w_a0_stack(-1);
 729              		.loc 1 55 25
 730              	.LVL40:
 731              	.LBB182:
 732              	.LBB183:
 243:src/../h/riscv.hpp **** }
 733              		.loc 2 243 5
 243:src/../h/riscv.hpp **** }
 734              		.loc 2 243 53 is_stmt 0
 735 0244 9307F0FF 		li	a5,-1
 736              	.LVL41:
 737              	#APP
 738              	# 243 "src/../h/riscv.hpp" 1
 739              		sd a5, 10*8(fp)
 740              	# 0 "" 2
 741              		.loc 2 244 1
 742              	#NO_APP
 743 024c 6FF09FF6 		j	.L6
 744              	.LVL42:
 745              	.L13:
 746              	.LBE183:
 747              	.LBE182:
  57:src/riscv.cpp ****                 a0 = thread->start();
 748              		.loc 1 57 17 is_stmt 1
  57:src/riscv.cpp ****                 a0 = thread->start();
 749              		.loc 1 57 35 is_stmt 0
 750 0250 13050900 		mv	a0,s2
 751              	.LVL43:
 752 0254 97000000 		call	_ZN3TCB5startEv@plt
 752      E7800000 
 753              	.LVL44:
  58:src/riscv.cpp ****                 w_a0_stack(a0);
 754              		.loc 1 58 17 is_stmt 1
 755              	.LBB184:
 756              	.LBB185:
 243:src/../h/riscv.hpp **** }
 757              		.loc 2 243 5
 243:src/../h/riscv.hpp **** }
 758              		.loc 2 243 53 is_stmt 0
 759              	#APP
 760              	# 243 "src/../h/riscv.hpp" 1
 761              		sd a0, 10*8(fp)
 762              	# 0 "" 2
 763              		.loc 2 244 1
 764              	#NO_APP
 765 0260 6FF05FF5 		j	.L6
 766              	.LVL45:
 767              	.L39:
 768              	.LBE185:
 769              	.LBE184:
 770              	.LBE181:
 771              	.LBB186:
 772              	.LBB167:
  62:src/riscv.cpp ****             TCB *handle = TCB::initializeThread((void (*)(void*))(a3), (void*)a2, (uint64*)a1);
 773              		.loc 1 62 13 is_stmt 1
  62:src/riscv.cpp ****             TCB *handle = TCB::initializeThread((void (*)(void*))(a3), (void*)a2, (uint64*)a1);
GAS LISTING /tmp/cciNAykN.s 			page 23


 774              		.loc 1 62 48 is_stmt 0
 775 0264 13060900 		mv	a2,s2
 776              	.LVL46:
 777 0268 93850900 		mv	a1,s3
 778 026c 97000000 		call	_ZN3TCB16initializeThreadEPFvPvES0_Pm@plt
 778      E7800000 
 779              	.LVL47:
  64:src/riscv.cpp ****             if(!handle) w_a0_stack(-1);
 780              		.loc 1 64 13 is_stmt 1
 781              	.LBB168:
 782 0274 630A0500 		beqz	a0,.L46
 783              	.LBB169:
  66:src/riscv.cpp ****                 TCB** h = (TCB**)a4;
 784              		.loc 1 66 17
 785              	.LVL48:
  67:src/riscv.cpp ****                 *(h) = handle;
 786              		.loc 1 67 17
  67:src/riscv.cpp ****                 *(h) = handle;
 787              		.loc 1 67 22 is_stmt 0
 788 0278 2330AA00 		sd	a0,0(s4)
  68:src/riscv.cpp ****                 w_a0_stack(0);
 789              		.loc 1 68 17 is_stmt 1
 790              	.LVL49:
 791              	.LBB170:
 792              	.LBB171:
 243:src/../h/riscv.hpp **** }
 793              		.loc 2 243 5
 243:src/../h/riscv.hpp **** }
 794              		.loc 2 243 53 is_stmt 0
 795 027c 93070000 		li	a5,0
 796              	#APP
 797              	# 243 "src/../h/riscv.hpp" 1
 798              		sd a5, 10*8(fp)
 799              	# 0 "" 2
 800              		.loc 2 244 1
 801              	#NO_APP
 802 0284 6FF01FF3 		j	.L6
 803              	.LVL50:
 804              	.L46:
 805              	.LBE171:
 806              	.LBE170:
 807              	.LBE169:
  64:src/riscv.cpp ****             if(!handle) w_a0_stack(-1);
 808              		.loc 1 64 25 is_stmt 1
 809              	.LBB172:
 810              	.LBB173:
 243:src/../h/riscv.hpp **** }
 811              		.loc 2 243 5
 243:src/../h/riscv.hpp **** }
 812              		.loc 2 243 53 is_stmt 0
 813 0288 9307F0FF 		li	a5,-1
 814              	#APP
 815              	# 243 "src/../h/riscv.hpp" 1
 816              		sd a5, 10*8(fp)
 817              	# 0 "" 2
 818              		.loc 2 244 1
 819              	#NO_APP
GAS LISTING /tmp/cciNAykN.s 			page 24


 820 0290 6FF05FF2 		j	.L6
 821              	.LVL51:
 822              	.L40:
 823              	.LBE173:
 824              	.LBE172:
 825              	.LBE168:
 826              	.LBE167:
 827              	.LBB174:
 828              	.LBB154:
  72:src/riscv.cpp ****             _sem* handle = new _sem((unsigned)a1);
 829              		.loc 1 72 13 is_stmt 1
 830              	.LBB155:
 831              	.LBB156:
 832              		.file 3 "src/../h/_sem.hpp"
   1:src/../h/_sem.hpp **** #ifndef __SEM_HPP
   2:src/../h/_sem.hpp **** #define __SEM_HPP
   3:src/../h/_sem.hpp **** 
   4:src/../h/_sem.hpp **** #include "list.hpp"
   5:src/../h/_sem.hpp **** #include "syscall_c.hpp"
   6:src/../h/_sem.hpp **** #include "../lib/mem.h"
   7:src/../h/_sem.hpp **** 
   8:src/../h/_sem.hpp **** class _sem {
   9:src/../h/_sem.hpp **** private:
  10:src/../h/_sem.hpp ****     int value;
  11:src/../h/_sem.hpp ****     List<TCB> blockedThreads;
  12:src/../h/_sem.hpp ****     int closed;
  13:src/../h/_sem.hpp **** 
  14:src/../h/_sem.hpp ****     friend class Riscv;
  15:src/../h/_sem.hpp **** public:
  16:src/../h/_sem.hpp ****     _sem(unsigned value);
  17:src/../h/_sem.hpp ****     ~_sem();
  18:src/../h/_sem.hpp ****     int signal();
  19:src/../h/_sem.hpp ****     int wait();
  20:src/../h/_sem.hpp **** 
  21:src/../h/_sem.hpp ****     void *operator new(size_t size) { return __mem_alloc(size); }
 833              		.loc 3 21 39
 834              		.loc 3 21 57 is_stmt 0
 835 0294 13050002 		li	a0,32
 836              	.LVL52:
 837 0298 97000000 		call	__mem_alloc@plt
 837      E7800000 
 838              	.LVL53:
 839              	.LEHE0:
 840 02a0 130A0500 		mv	s4,a0
 841              	.LVL54:
 842              	.LBE156:
 843              	.LBE155:
  72:src/riscv.cpp ****             _sem* handle = new _sem((unsigned)a1);
 844              		.loc 1 72 49
 845 02a4 9B050900 		sext.w	a1,s2
 846              	.LEHB1:
 847 02a8 97000000 		call	_ZN4_semC1Ej@plt
 847      E7800000 
 848              	.LVL55:
 849              	.LEHE1:
  73:src/riscv.cpp ****             _sem** h = (_sem**)a2;
 850              		.loc 1 73 13 is_stmt 1 discriminator 2
GAS LISTING /tmp/cciNAykN.s 			page 25


  74:src/riscv.cpp ****             *(h) = handle;
 851              		.loc 1 74 13 discriminator 2
  74:src/riscv.cpp ****             *(h) = handle;
 852              		.loc 1 74 18 is_stmt 0 discriminator 2
 853 02b0 23B04901 		sd	s4,0(s3)
  75:src/riscv.cpp ****             w_a0_stack(0);
 854              		.loc 1 75 13 is_stmt 1 discriminator 2
 855              	.LVL56:
 856              	.LBB157:
 857              	.LBB158:
 243:src/../h/riscv.hpp **** }
 858              		.loc 2 243 5 discriminator 2
 243:src/../h/riscv.hpp **** }
 859              		.loc 2 243 53 is_stmt 0 discriminator 2
 860 02b4 93070000 		li	a5,0
 861              	#APP
 862              	# 243 "src/../h/riscv.hpp" 1
 863              		sd a5, 10*8(fp)
 864              	# 0 "" 2
 865              		.loc 2 244 1 discriminator 2
 866              	#NO_APP
 867 02bc 6FF09FEF 		j	.L6
 868              	.LVL57:
 869              	.L41:
 870              	.LBE158:
 871              	.LBE157:
 872              	.LBE154:
 873              	.LBB161:
 874              	.LBB143:
  78:src/riscv.cpp ****             _sem* sem = (_sem*)a1;
 875              		.loc 1 78 13 is_stmt 1
  80:src/riscv.cpp ****             if(!sem) w_a0_stack(-1);
 876              		.loc 1 80 13
 877 02c0 63180900 		bnez	s2,.L18
  80:src/riscv.cpp ****             if(!sem) w_a0_stack(-1);
 878              		.loc 1 80 22
 879              	.LVL58:
 880              	.LBB144:
 881              	.LBB145:
 243:src/../h/riscv.hpp **** }
 882              		.loc 2 243 5
 243:src/../h/riscv.hpp **** }
 883              		.loc 2 243 53 is_stmt 0
 884 02c4 9307F0FF 		li	a5,-1
 885              	.LVL59:
 886              	#APP
 887              	# 243 "src/../h/riscv.hpp" 1
 888              		sd a5, 10*8(fp)
 889              	# 0 "" 2
 890              		.loc 2 244 1
 891              	#NO_APP
 892 02cc 6FF09FEE 		j	.L6
 893              	.LVL60:
 894              	.L18:
 895              	.LBE145:
 896              	.LBE144:
  82:src/riscv.cpp ****                 delete sem;
GAS LISTING /tmp/cciNAykN.s 			page 26


 897              		.loc 1 82 17 is_stmt 1 discriminator 1
  82:src/riscv.cpp ****                 delete sem;
 898              		.loc 1 82 24 is_stmt 0 discriminator 1
 899 02d0 13050900 		mv	a0,s2
 900              	.LVL61:
 901 02d4 97000000 		call	_ZN4_semD1Ev@plt
 901      E7800000 
 902              	.LVL62:
 903              	.LBB146:
 904              	.LBB147:
  22:src/../h/_sem.hpp ****     void operator delete(void *ptr) { __mem_free(ptr); }
 905              		.loc 3 22 39 is_stmt 1 discriminator 1
 906              		.loc 3 22 49 is_stmt 0 discriminator 1
 907 02dc 13050900 		mv	a0,s2
 908              	.LEHB2:
 909 02e0 97000000 		call	__mem_free@plt
 909      E7800000 
 910              	.LVL63:
 911              	.LBE147:
 912              	.LBE146:
  83:src/riscv.cpp ****                 w_a0_stack(0);
 913              		.loc 1 83 17 is_stmt 1 discriminator 1
 914              	.LBB148:
 915              	.LBB149:
 243:src/../h/riscv.hpp **** }
 916              		.loc 2 243 5 discriminator 1
 243:src/../h/riscv.hpp **** }
 917              		.loc 2 243 53 is_stmt 0 discriminator 1
 918 02e8 93070000 		li	a5,0
 919              	#APP
 920              	# 243 "src/../h/riscv.hpp" 1
 921              		sd a5, 10*8(fp)
 922              	# 0 "" 2
 923              		.loc 2 244 1 discriminator 1
 924              	#NO_APP
 925 02f0 6FF05FEC 		j	.L6
 926              	.LVL64:
 927              	.L42:
 928              	.LBE149:
 929              	.LBE148:
 930              	.LBE143:
 931              	.LBB150:
 932              	.LBB135:
  87:src/riscv.cpp ****             _sem* sem = (_sem*)a1;
 933              		.loc 1 87 13 is_stmt 1
  89:src/riscv.cpp ****             if(!sem) w_a0_stack(-1);
 934              		.loc 1 89 13
 935 02f4 63180900 		bnez	s2,.L20
  89:src/riscv.cpp ****             if(!sem) w_a0_stack(-1);
 936              		.loc 1 89 22
 937              	.LVL65:
 938              	.LBB136:
 939              	.LBB137:
 243:src/../h/riscv.hpp **** }
 940              		.loc 2 243 5
 243:src/../h/riscv.hpp **** }
 941              		.loc 2 243 53 is_stmt 0
GAS LISTING /tmp/cciNAykN.s 			page 27


 942 02f8 9307F0FF 		li	a5,-1
 943              	.LVL66:
 944              	#APP
 945              	# 243 "src/../h/riscv.hpp" 1
 946              		sd a5, 10*8(fp)
 947              	# 0 "" 2
 948              		.loc 2 244 1
 949              	#NO_APP
 950 0300 6FF05FEB 		j	.L6
 951              	.LVL67:
 952              	.L20:
 953              	.LBE137:
 954              	.LBE136:
  91:src/riscv.cpp ****                 a0 = sem->wait();
 955              		.loc 1 91 17 is_stmt 1
  91:src/riscv.cpp ****                 a0 = sem->wait();
 956              		.loc 1 91 31 is_stmt 0
 957 0304 13050900 		mv	a0,s2
 958              	.LVL68:
 959 0308 97000000 		call	_ZN4_sem4waitEv@plt
 959      E7800000 
 960              	.LVL69:
  92:src/riscv.cpp ****                 w_a0_stack(a0);
 961              		.loc 1 92 17 is_stmt 1
 962              	.LBB138:
 963              	.LBB139:
 243:src/../h/riscv.hpp **** }
 964              		.loc 2 243 5
 243:src/../h/riscv.hpp **** }
 965              		.loc 2 243 53 is_stmt 0
 966              	#APP
 967              	# 243 "src/../h/riscv.hpp" 1
 968              		sd a0, 10*8(fp)
 969              	# 0 "" 2
 970              		.loc 2 244 1
 971              	#NO_APP
 972 0314 6FF01FEA 		j	.L6
 973              	.LVL70:
 974              	.L43:
 975              	.LBE139:
 976              	.LBE138:
 977              	.LBE135:
 978              	.LBB140:
 979              	.LBB128:
  96:src/riscv.cpp ****             _sem* sem = (_sem*)a1;
 980              		.loc 1 96 13 is_stmt 1
  98:src/riscv.cpp ****             if(!sem) w_a0_stack(-1);
 981              		.loc 1 98 13
 982 0318 63180900 		bnez	s2,.L22
  98:src/riscv.cpp ****             if(!sem) w_a0_stack(-1);
 983              		.loc 1 98 22
 984              	.LVL71:
 985              	.LBB129:
 986              	.LBB130:
 243:src/../h/riscv.hpp **** }
 987              		.loc 2 243 5
 243:src/../h/riscv.hpp **** }
GAS LISTING /tmp/cciNAykN.s 			page 28


 988              		.loc 2 243 53 is_stmt 0
 989 031c 9307F0FF 		li	a5,-1
 990              	.LVL72:
 991              	#APP
 992              	# 243 "src/../h/riscv.hpp" 1
 993              		sd a5, 10*8(fp)
 994              	# 0 "" 2
 995              		.loc 2 244 1
 996              	#NO_APP
 997 0324 6FF01FE9 		j	.L6
 998              	.LVL73:
 999              	.L22:
 1000              	.LBE130:
 1001              	.LBE129:
 100:src/riscv.cpp ****                 a0 = sem->signal();
 1002              		.loc 1 100 17 is_stmt 1
 100:src/riscv.cpp ****                 a0 = sem->signal();
 1003              		.loc 1 100 33 is_stmt 0
 1004 0328 13050900 		mv	a0,s2
 1005              	.LVL74:
 1006 032c 97000000 		call	_ZN4_sem6signalEv@plt
 1006      E7800000 
 1007              	.LVL75:
 101:src/riscv.cpp ****                 w_a0_stack(a0);
 1008              		.loc 1 101 17 is_stmt 1
 1009              	.LBB131:
 1010              	.LBB132:
 243:src/../h/riscv.hpp **** }
 1011              		.loc 2 243 5
 243:src/../h/riscv.hpp **** }
 1012              		.loc 2 243 53 is_stmt 0
 1013              	#APP
 1014              	# 243 "src/../h/riscv.hpp" 1
 1015              		sd a0, 10*8(fp)
 1016              	# 0 "" 2
 1017              		.loc 2 244 1
 1018              	#NO_APP
 1019 0338 6FF0DFE7 		j	.L6
 1020              	.LVL76:
 1021              	.L44:
 1022              	.LBE132:
 1023              	.LBE131:
 1024              	.LBE128:
 1025              	.LBB133:
 1026              	.LBB125:
 105:src/riscv.cpp ****             char c = __getc();
 1027              		.loc 1 105 13 is_stmt 1
 105:src/riscv.cpp ****             char c = __getc();
 1028              		.loc 1 105 28 is_stmt 0
 1029 033c 97000000 		call	__getc@plt
 1029      E7800000 
 1030              	.LVL77:
 106:src/riscv.cpp ****             w_a0_stack((long)c);
 1031              		.loc 1 106 13 is_stmt 1
 1032              	.LBB126:
 1033              	.LBB127:
 243:src/../h/riscv.hpp **** }
GAS LISTING /tmp/cciNAykN.s 			page 29


 1034              		.loc 2 243 5
 243:src/../h/riscv.hpp **** }
 1035              		.loc 2 243 53 is_stmt 0
 1036              	#APP
 1037              	# 243 "src/../h/riscv.hpp" 1
 1038              		sd a0, 10*8(fp)
 1039              	# 0 "" 2
 1040              		.loc 2 244 1
 1041              	#NO_APP
 1042 0348 6FF0DFE6 		j	.L6
 1043              	.LVL78:
 1044              	.L31:
 1045              	.LBE127:
 1046              	.LBE126:
 1047              	.LBE125:
 1048              	.LBE133:
 1049              	.LBE140:
 1050              	.LBE150:
 1051              	.LBE161:
 1052              	.LBE174:
 1053              	.LBE186:
 1054              	.LBE194:
 1055              	.LBE205:
 1056              	.LBE222:
 1057              	.LBE235:
 1058              	.LBE250:
 1059              	.LBE267:
 1060              	.LBE280:
 128:src/riscv.cpp ****         mc_sip(SIP_SSIP);
 1061              		.loc 1 128 9 is_stmt 1
 1062              	.LBB281:
 1063              	.LBB282:
 161:src/../h/riscv.hpp **** }
 1064              		.loc 2 161 5
 161:src/../h/riscv.hpp **** }
 1065              		.loc 2 161 64 is_stmt 0
 1066 034c 93072000 		li	a5,2
 1067              	#APP
 1068              	# 161 "src/../h/riscv.hpp" 1
 162:src/../h/riscv.hpp **** 
 1069              		csrc sip, a5
 1070              	# 0 "" 2
 1071              		.loc 2 162 1
 1072              	#NO_APP
 1073 0354 6FF09FE6 		j	.L3
 1074              	.LVL79:
 1075              	.L32:
 1076              	.LBE282:
 1077              	.LBE281:
 131:src/riscv.cpp ****         console_handler();
 1078              		.loc 1 131 9 is_stmt 1
 131:src/riscv.cpp ****         console_handler();
 1079              		.loc 1 131 24 is_stmt 0
 1080 0358 97000000 		call	console_handler@plt
 1080      E7800000 
 1081              	.LVL80:
 1082              	.LEHE2:
GAS LISTING /tmp/cciNAykN.s 			page 30


 1083 0360 6FF0DFE5 		j	.L3
 1084              	.LVL81:
 1085              	.L28:
 1086 0364 93040500 		mv	s1,a0
 1087              	.LVL82:
 1088              	.LBB283:
 1089              	.LBB268:
 1090              	.LBB251:
 1091              	.LBB236:
 1092              	.LBB223:
 1093              	.LBB206:
 1094              	.LBB195:
 1095              	.LBB187:
 1096              	.LBB175:
 1097              	.LBB162:
 1098              	.LBB159:
 1099              	.LBB160:
 1100              		.loc 3 22 39 is_stmt 1
 1101              		.loc 3 22 49 is_stmt 0
 1102 0368 13050A00 		mv	a0,s4
 1103 036c 97000000 		call	__mem_free@plt
 1103      E7800000 
 1104              	.LVL83:
 1105 0374 13850400 		mv	a0,s1
 1106              	.LEHB3:
 1107 0378 97000000 		call	_Unwind_Resume@plt
 1107      E7800000 
 1108              	.LVL84:
 1109              	.LEHE3:
 1110              	.LBE160:
 1111              	.LBE159:
 1112              	.LBE162:
 1113              	.LBE175:
 1114              	.LBE187:
 1115              	.LBE195:
 1116              	.LBE206:
 1117              	.LBE223:
 1118              	.LBE236:
 1119              	.LBE251:
 1120              	.LBE268:
 1121              	.LBE283:
 1122              	.LBE296:
 1123              		.cfi_endproc
 1124              	.LFE50:
 1125              		.globl	__gxx_personality_v0
 1126              		.section	.gcc_except_table,"a",@progbits
 1127              	.LLSDA50:
 1128 0000 FF       		.byte	0xff
 1129 0001 FF       		.byte	0xff
 1130 0002 03       		.byte	0x3
 1131 0003 34       		.byte	0x34
 1132 0004 00000000 		.4byte	.LEHB0-.LFB50
 1133 0008 00000000 		.4byte	.LEHE0-.LEHB0
 1134 000c 00000000 		.4byte	0
 1135 0010 00       		.byte	0
 1136 0011 00000000 		.4byte	.LEHB1-.LFB50
 1137 0015 00000000 		.4byte	.LEHE1-.LEHB1
GAS LISTING /tmp/cciNAykN.s 			page 31


 1138 0019 00000000 		.4byte	.L28-.LFB50
 1139 001d 00       		.byte	0
 1140 001e 00000000 		.4byte	.LEHB2-.LFB50
 1141 0022 00000000 		.4byte	.LEHE2-.LEHB2
 1142 0026 00000000 		.4byte	0
 1143 002a 00       		.byte	0
 1144 002b 00000000 		.4byte	.LEHB3-.LFB50
 1145 002f 00000000 		.4byte	.LEHE3-.LEHB3
 1146 0033 00000000 		.4byte	0
 1147 0037 00       		.byte	0
 1148              		.text
 1150              	.Letext0:
 1151              		.file 4 "src/../h/../lib/hw.h"
 1152              		.file 5 "src/../h/list.hpp"
 1153              		.file 6 "src/../h/tcb.hpp"
 1154              		.file 7 "src/../h/../test/../h/syscall_c.hpp"
 1155              		.file 8 "src/../h/../lib/mem.h"
 1156              		.file 9 "src/../lib/console.h"
 1157              		.file 10 "src/../h/../test/printing.hpp"
 5364              		.align	3
 5367              	DW.ref.__gxx_personality_v0:
 5368 0000 00000000 		.dword	__gxx_personality_v0
 5368      00000000 
 5369              		.ident	"GCC: (Ubuntu 9.4.0-1ubuntu1~20.04) 9.4.0"
 5370              		.section	.note.GNU-stack,"",@progbits
GAS LISTING /tmp/cciNAykN.s 			page 32

