GAS LISTING /tmp/cc7QZut1.s 			page 1


   1              		.file	"tcb.cpp"
   2              		.option pic
   3              		.option norelax
   4              		.text
   5              	.Ltext0:
   6              		.align	2
   7              		.globl	_ZN3TCB13threadWrapperEv
   9              	_ZN3TCB13threadWrapperEv:
  10              	.LFB44:
  11              		.file 1 "src/tcb.cpp"
   1:src/tcb.cpp   **** #include "../h/tcb.hpp"
   2:src/tcb.cpp   **** #include "../h/riscv.hpp"
   3:src/tcb.cpp   **** 
   4:src/tcb.cpp   **** TCB *TCB::running = nullptr;
   5:src/tcb.cpp   **** uint64 TCB::timeSliceCounter = 0;
   6:src/tcb.cpp   **** uint64 TCB::ID = 0;
   7:src/tcb.cpp   **** 
   8:src/tcb.cpp   **** TCB *TCB::createThread(Body body, Arg arg, uint64* stack) {
   9:src/tcb.cpp   ****     return new TCB(body, arg, stack, DEFAULT_TIME_SLICE);
  10:src/tcb.cpp   **** }
  11:src/tcb.cpp   **** 
  12:src/tcb.cpp   **** void TCB::dispatch() {
  13:src/tcb.cpp   ****     TCB::timeSliceCounter = 0;
  14:src/tcb.cpp   **** 
  15:src/tcb.cpp   ****     TCB *old = running;
  16:src/tcb.cpp   **** 
  17:src/tcb.cpp   ****     if (!old->isFinished()) {
  18:src/tcb.cpp   ****         old->state = READY;
  19:src/tcb.cpp   ****         Scheduler::put(old);
  20:src/tcb.cpp   ****     }
  21:src/tcb.cpp   **** 
  22:src/tcb.cpp   ****     running = Scheduler::get();
  23:src/tcb.cpp   ****     running->state = RUNNING;
  24:src/tcb.cpp   **** 
  25:src/tcb.cpp   ****     TCB::contextSwitch(&old->context, &running->context);
  26:src/tcb.cpp   **** }
  27:src/tcb.cpp   **** 
  28:src/tcb.cpp   **** void TCB::threadWrapper() {
  12              		.loc 1 28 27
  13              		.cfi_startproc
  14 0000 130101FF 		addi	sp,sp,-16
  15              		.cfi_def_cfa_offset 16
  16 0004 23341100 		sd	ra,8(sp)
  17 0008 23308100 		sd	s0,0(sp)
  18              		.cfi_offset 1, -8
  19              		.cfi_offset 8, -16
  20 000c 13040101 		addi	s0,sp,16
  21              		.cfi_def_cfa 8, 0
  29:src/tcb.cpp   ****     Riscv::popSppSpie();
  22              		.loc 1 29 5
  23              		.loc 1 29 22 is_stmt 0
  24 0010 97000000 		call	_ZN5Riscv10popSppSpieEv@plt
  24      E7800000 
  25              	.LVL0:
  30:src/tcb.cpp   ****     running->body(running->arg);
  26              		.loc 1 30 5 is_stmt 1
  27              		.loc 1 30 14 is_stmt 0
GAS LISTING /tmp/cc7QZut1.s 			page 2


  28 0018 97070000 		ld	a5,.LANCHOR0
  28      83B70700 
  29 0020 03B78700 		ld	a4,8(a5)
  30              		.loc 1 30 18
  31 0024 03B50701 		ld	a0,16(a5)
  32 0028 E7000700 		jalr	a4
  33              	.LVL1:
  31:src/tcb.cpp   ****     thread_exit();
  34              		.loc 1 31 5 is_stmt 1
  35              		.loc 1 31 16 is_stmt 0
  36 002c 97000000 		call	_Z11thread_exitv@plt
  36      E7800000 
  37              	.LVL2:
  32:src/tcb.cpp   **** }
  38              		.loc 1 32 1
  39 0034 83308100 		ld	ra,8(sp)
  40              		.cfi_restore 1
  41 0038 03340100 		ld	s0,0(sp)
  42              		.cfi_restore 8
  43              		.cfi_def_cfa 2, 16
  44 003c 13010101 		addi	sp,sp,16
  45              		.cfi_def_cfa_offset 0
  46 0040 67800000 		jr	ra
  47              		.cfi_endproc
  48              	.LFE44:
  50              		.align	2
  51              		.globl	_ZN3TCB12createThreadEPFvPvES0_Pm
  53              	_ZN3TCB12createThreadEPFvPvES0_Pm:
  54              	.LFB42:
   8:src/tcb.cpp   ****     return new TCB(body, arg, stack, DEFAULT_TIME_SLICE);
  55              		.loc 1 8 59 is_stmt 1
  56              		.cfi_startproc
  57              	.LVL3:
  58 0044 130101FD 		addi	sp,sp,-48
  59              		.cfi_def_cfa_offset 48
  60 0048 23341102 		sd	ra,40(sp)
  61 004c 23308102 		sd	s0,32(sp)
  62 0050 233C9100 		sd	s1,24(sp)
  63 0054 23382101 		sd	s2,16(sp)
  64 0058 23343101 		sd	s3,8(sp)
  65              		.cfi_offset 1, -8
  66              		.cfi_offset 8, -16
  67              		.cfi_offset 9, -24
  68              		.cfi_offset 18, -32
  69              		.cfi_offset 19, -40
  70 005c 13040103 		addi	s0,sp,48
  71              		.cfi_def_cfa 8, 0
  72 0060 13090500 		mv	s2,a0
  73 0064 93890500 		mv	s3,a1
  74 0068 93040600 		mv	s1,a2
   9:src/tcb.cpp   **** }
  75              		.loc 1 9 5
   9:src/tcb.cpp   **** }
  76              		.loc 1 9 56 is_stmt 0
  77 006c 13050004 		li	a0,64
  78              	.LVL4:
  79 0070 97000000 		call	_Znwm@plt
GAS LISTING /tmp/cc7QZut1.s 			page 3


  79      E7800000 
  80              	.LVL5:
  81              	.LBB7:
  82              	.LBB8:
  83              		.file 2 "src/../h/tcb.hpp"
   1:src/../h/tcb.hpp **** #ifndef TCB_HPP
   2:src/../h/tcb.hpp **** #define TCB_HPP
   3:src/../h/tcb.hpp **** 
   4:src/../h/tcb.hpp **** #include "../lib/hw.h"
   5:src/../h/tcb.hpp **** #include "scheduler.hpp"
   6:src/../h/tcb.hpp **** #include "../test/printing.hpp"
   7:src/../h/tcb.hpp **** 
   8:src/../h/tcb.hpp **** // Thread Control Block
   9:src/../h/tcb.hpp **** class TCB
  10:src/../h/tcb.hpp **** {
  11:src/../h/tcb.hpp **** public:
  12:src/../h/tcb.hpp ****     enum State {CREATED, READY, RUNNING, FINISHED};
  13:src/../h/tcb.hpp **** 
  14:src/../h/tcb.hpp ****     ~TCB() { delete[] stack; }
  15:src/../h/tcb.hpp **** 
  16:src/../h/tcb.hpp ****     bool isFinished() const { return this->state == FINISHED; }
  17:src/../h/tcb.hpp **** 
  18:src/../h/tcb.hpp ****     uint64 getTimeSlice() const { return timeSlice; }
  19:src/../h/tcb.hpp **** 
  20:src/../h/tcb.hpp ****     int start();
  21:src/../h/tcb.hpp **** 
  22:src/../h/tcb.hpp ****     using Body = void (*)(void*);
  23:src/../h/tcb.hpp **** 
  24:src/../h/tcb.hpp ****     using Arg = void*;
  25:src/../h/tcb.hpp **** 
  26:src/../h/tcb.hpp ****     static TCB *createThread(Body body, Arg arg, uint64* stack);
  27:src/../h/tcb.hpp **** 
  28:src/../h/tcb.hpp ****     static TCB *running;
  29:src/../h/tcb.hpp **** 
  30:src/../h/tcb.hpp **** private:
  31:src/../h/tcb.hpp ****     TCB(Body body, Arg arg, uint64 *stack, uint64 timeSlice) :
  32:src/../h/tcb.hpp ****             body(body),
  33:src/../h/tcb.hpp ****             arg(arg),
  34:src/../h/tcb.hpp ****             stack(body != nullptr ? stack : nullptr),
  35:src/../h/tcb.hpp ****             context({(uint64) &threadWrapper,
  36:src/../h/tcb.hpp ****                      stack != nullptr ? (uint64) &stack[DEFAULT_STACK_SIZE] : 0
  37:src/../h/tcb.hpp ****                     }),
  38:src/../h/tcb.hpp ****             timeSlice(timeSlice)
  84              		.loc 2 38 32
  85 0078 23342501 		sd	s2,8(a0)
  86 007c 23383501 		sd	s3,16(a0)
  34:src/../h/tcb.hpp ****             context({(uint64) &threadWrapper,
  87              		.loc 2 34 35
  88 0080 63040906 		beqz	s2,.L6
  89 0084 93870400 		mv	a5,s1
  90              	.L4:
  91              		.loc 2 38 32
  92 0088 233CF500 		sd	a5,24(a0)
  93 008c 97070000 		lla	a5,_ZN3TCB13threadWrapperEv
  93      93870700 
  94 0094 2330F502 		sd	a5,32(a0)
  36:src/../h/tcb.hpp ****                     }),
GAS LISTING /tmp/cc7QZut1.s 			page 4


  95              		.loc 2 36 39
  96 0098 638C0404 		beqz	s1,.L7
  36:src/../h/tcb.hpp ****                     }),
  97              		.loc 2 36 50
  98 009c 37860000 		li	a2,32768
  99 00a0 B384C400 		add	s1,s1,a2
 100              	.LVL6:
 101              	.L5:
 102              		.loc 2 38 32
 103 00a4 23349502 		sd	s1,40(a0)
 104 00a8 93072000 		li	a5,2
 105 00ac 2338F502 		sd	a5,48(a0)
  39:src/../h/tcb.hpp ****     {
  40:src/../h/tcb.hpp ****         this->id = this->ID++;
 106              		.loc 2 40 9 is_stmt 1
 107              		.loc 2 40 28 is_stmt 0
 108 00b0 17070000 		lla	a4,.LANCHOR0
 108      13070700 
 109 00b8 83378700 		ld	a5,8(a4)
 110 00bc 93861700 		addi	a3,a5,1
 111 00c0 2334D700 		sd	a3,8(a4)
 112              		.loc 2 40 18
 113 00c4 2330F500 		sd	a5,0(a0)
  41:src/../h/tcb.hpp ****         this->state = CREATED;
 114              		.loc 2 41 9 is_stmt 1
 115              		.loc 2 41 21 is_stmt 0
 116 00c8 232C0502 		sw	zero,56(a0)
 117              	.LVL7:
 118              	.LBE8:
 119              	.LBE7:
  10:src/tcb.cpp   **** 
 120              		.loc 1 10 1
 121 00cc 83308102 		ld	ra,40(sp)
 122              		.cfi_remember_state
 123              		.cfi_restore 1
 124 00d0 03340102 		ld	s0,32(sp)
 125              		.cfi_restore 8
 126              		.cfi_def_cfa 2, 48
 127 00d4 83348101 		ld	s1,24(sp)
 128              		.cfi_restore 9
 129 00d8 03390101 		ld	s2,16(sp)
 130              		.cfi_restore 18
 131              	.LVL8:
 132 00dc 83398100 		ld	s3,8(sp)
 133              		.cfi_restore 19
 134              	.LVL9:
 135 00e0 13010103 		addi	sp,sp,48
 136              		.cfi_def_cfa_offset 0
 137 00e4 67800000 		jr	ra
 138              	.LVL10:
 139              	.L6:
 140              		.cfi_restore_state
 141              	.LBB10:
 142              	.LBB9:
  34:src/../h/tcb.hpp ****             context({(uint64) &threadWrapper,
 143              		.loc 2 34 35
 144 00e8 93070000 		li	a5,0
GAS LISTING /tmp/cc7QZut1.s 			page 5


 145 00ec 6FF0DFF9 		j	.L4
 146              	.L7:
  36:src/../h/tcb.hpp ****                     }),
 147              		.loc 2 36 39
 148 00f0 93040000 		li	s1,0
 149              	.LVL11:
 150 00f4 6FF01FFB 		j	.L5
 151              	.LBE9:
 152              	.LBE10:
 153              		.cfi_endproc
 154              	.LFE42:
 156              		.align	2
 157              		.globl	_ZN3TCB8dispatchEv
 159              	_ZN3TCB8dispatchEv:
 160              	.LFB43:
  12:src/tcb.cpp   ****     TCB::timeSliceCounter = 0;
 161              		.loc 1 12 22 is_stmt 1
 162              		.cfi_startproc
 163 00f8 130101FE 		addi	sp,sp,-32
 164              		.cfi_def_cfa_offset 32
 165 00fc 233C1100 		sd	ra,24(sp)
 166 0100 23388100 		sd	s0,16(sp)
 167 0104 23349100 		sd	s1,8(sp)
 168              		.cfi_offset 1, -8
 169              		.cfi_offset 8, -16
 170              		.cfi_offset 9, -24
 171 0108 13040102 		addi	s0,sp,32
 172              		.cfi_def_cfa 8, 0
  13:src/tcb.cpp   **** 
 173              		.loc 1 13 5
  13:src/tcb.cpp   **** 
 174              		.loc 1 13 27 is_stmt 0
 175 010c 97070000 		lla	a5,.LANCHOR0
 175      93870700 
 176 0114 23B80700 		sd	zero,16(a5)
  15:src/tcb.cpp   **** 
 177              		.loc 1 15 5 is_stmt 1
  15:src/tcb.cpp   **** 
 178              		.loc 1 15 10 is_stmt 0
 179 0118 83B40700 		ld	s1,0(a5)
 180              	.LVL12:
  17:src/tcb.cpp   ****         old->state = READY;
 181              		.loc 1 17 5 is_stmt 1
 182              	.LBB11:
 183              	.LBB12:
  16:src/../h/tcb.hpp **** 
 184              		.loc 2 16 31
  16:src/../h/tcb.hpp **** 
 185              		.loc 2 16 44 is_stmt 0
 186 011c 03A78403 		lw	a4,56(s1)
 187              	.LVL13:
 188              	.LBE12:
 189              	.LBE11:
  17:src/tcb.cpp   ****         old->state = READY;
 190              		.loc 1 17 5
 191 0120 93073000 		li	a5,3
 192 0124 6310F704 		bne	a4,a5,.L12
GAS LISTING /tmp/cc7QZut1.s 			page 6


 193              	.L10:
  22:src/tcb.cpp   ****     running->state = RUNNING;
 194              		.loc 1 22 5 is_stmt 1
  22:src/tcb.cpp   ****     running->state = RUNNING;
 195              		.loc 1 22 29 is_stmt 0
 196 0128 97000000 		call	_ZN9Scheduler3getEv@plt
 196      E7800000 
 197              	.LVL14:
  22:src/tcb.cpp   ****     running->state = RUNNING;
 198              		.loc 1 22 13
 199 0130 97070000 		sd	a0,.LANCHOR0,a5
 199      23B0A700 
  23:src/tcb.cpp   **** 
 200              		.loc 1 23 5 is_stmt 1
  23:src/tcb.cpp   **** 
 201              		.loc 1 23 20 is_stmt 0
 202 0138 93072000 		li	a5,2
 203 013c 232CF502 		sw	a5,56(a0)
  25:src/tcb.cpp   **** }
 204              		.loc 1 25 5 is_stmt 1
  25:src/tcb.cpp   **** }
 205              		.loc 1 25 23 is_stmt 0
 206 0140 93050502 		addi	a1,a0,32
 207 0144 13850402 		addi	a0,s1,32
 208 0148 97000000 		call	_ZN3TCB13contextSwitchEPNS_7ContextES1_@plt
 208      E7800000 
 209              	.LVL15:
  26:src/tcb.cpp   **** 
 210              		.loc 1 26 1
 211 0150 83308101 		ld	ra,24(sp)
 212              		.cfi_remember_state
 213              		.cfi_restore 1
 214 0154 03340101 		ld	s0,16(sp)
 215              		.cfi_restore 8
 216              		.cfi_def_cfa 2, 32
 217 0158 83348100 		ld	s1,8(sp)
 218              		.cfi_restore 9
 219              	.LVL16:
 220 015c 13010102 		addi	sp,sp,32
 221              		.cfi_def_cfa_offset 0
 222 0160 67800000 		jr	ra
 223              	.LVL17:
 224              	.L12:
 225              		.cfi_restore_state
  18:src/tcb.cpp   ****         Scheduler::put(old);
 226              		.loc 1 18 9 is_stmt 1
  18:src/tcb.cpp   ****         Scheduler::put(old);
 227              		.loc 1 18 20 is_stmt 0
 228 0164 93071000 		li	a5,1
 229 0168 23ACF402 		sw	a5,56(s1)
  19:src/tcb.cpp   ****     }
 230              		.loc 1 19 9 is_stmt 1
  19:src/tcb.cpp   ****     }
 231              		.loc 1 19 23 is_stmt 0
 232 016c 13850400 		mv	a0,s1
 233 0170 97000000 		call	_ZN9Scheduler3putEP3TCB@plt
 233      E7800000 
GAS LISTING /tmp/cc7QZut1.s 			page 7


 234              	.LVL18:
 235 0178 6FF01FFB 		j	.L10
 236              		.cfi_endproc
 237              	.LFE43:
 239              		.align	2
 240              		.globl	_ZN3TCB4exitEv
 242              	_ZN3TCB4exitEv:
 243              	.LFB45:
  33:src/tcb.cpp   **** 
  34:src/tcb.cpp   **** int TCB::exit() {
 244              		.loc 1 34 17 is_stmt 1
 245              		.cfi_startproc
  35:src/tcb.cpp   ****     if(running->state == RUNNING){
 246              		.loc 1 35 5
 247              		.loc 1 35 17 is_stmt 0
 248 017c 97070000 		ld	a5,.LANCHOR0
 248      83B70700 
 249 0184 83A68703 		lw	a3,56(a5)
 250              		.loc 1 35 5
 251 0188 13072000 		li	a4,2
 252 018c 639CE602 		bne	a3,a4,.L15
  34:src/tcb.cpp   ****     if(running->state == RUNNING){
 253              		.loc 1 34 17
 254 0190 130101FF 		addi	sp,sp,-16
 255              		.cfi_def_cfa_offset 16
 256 0194 23341100 		sd	ra,8(sp)
 257 0198 23308100 		sd	s0,0(sp)
 258              		.cfi_offset 1, -8
 259              		.cfi_offset 8, -16
 260 019c 13040101 		addi	s0,sp,16
 261              		.cfi_def_cfa 8, 0
  36:src/tcb.cpp   ****         running->state = FINISHED;
 262              		.loc 1 36 9 is_stmt 1
 263              		.loc 1 36 24 is_stmt 0
 264 01a0 13073000 		li	a4,3
 265 01a4 23ACE702 		sw	a4,56(a5)
  37:src/tcb.cpp   ****         dispatch();
 266              		.loc 1 37 9 is_stmt 1
 267              		.loc 1 37 17 is_stmt 0
 268 01a8 97000000 		call	_ZN3TCB8dispatchEv
 268      E7800000 
 269              	.LVL19:
  38:src/tcb.cpp   ****         return 0;
 270              		.loc 1 38 9 is_stmt 1
 271              		.loc 1 38 16 is_stmt 0
 272 01b0 13050000 		li	a0,0
  39:src/tcb.cpp   ****     }
  40:src/tcb.cpp   ****     return -1;
  41:src/tcb.cpp   **** }
 273              		.loc 1 41 1
 274 01b4 83308100 		ld	ra,8(sp)
 275              		.cfi_restore 1
 276 01b8 03340100 		ld	s0,0(sp)
 277              		.cfi_restore 8
 278              		.cfi_def_cfa 2, 16
 279 01bc 13010101 		addi	sp,sp,16
 280              		.cfi_def_cfa_offset 0
GAS LISTING /tmp/cc7QZut1.s 			page 8


 281 01c0 67800000 		jr	ra
 282              	.L15:
  40:src/tcb.cpp   **** }
 283              		.loc 1 40 13
 284 01c4 1305F0FF 		li	a0,-1
 285              		.loc 1 41 1
 286 01c8 67800000 		ret
 287              		.cfi_endproc
 288              	.LFE45:
 290              		.align	2
 291              		.globl	_ZN3TCB5startEv
 293              	_ZN3TCB5startEv:
 294              	.LFB46:
  42:src/tcb.cpp   **** 
  43:src/tcb.cpp   **** int TCB::start() {
 295              		.loc 1 43 18 is_stmt 1
 296              		.cfi_startproc
 297              	.LVL20:
  44:src/tcb.cpp   ****     if(this->state != CREATED) return -1;
 298              		.loc 1 44 5
 299              		.loc 1 44 14 is_stmt 0
 300 01cc 83278503 		lw	a5,56(a0)
 301              		.loc 1 44 5
 302 01d0 63940704 		bnez	a5,.L22
  45:src/tcb.cpp   ****     this->state = READY;
 303              		.loc 1 45 5 is_stmt 1
 304              		.loc 1 45 17 is_stmt 0
 305 01d4 93071000 		li	a5,1
 306 01d8 232CF502 		sw	a5,56(a0)
  46:src/tcb.cpp   ****     if (this->id != 0) { Scheduler::put(this); }
 307              		.loc 1 46 5 is_stmt 1
 308              		.loc 1 46 15 is_stmt 0
 309 01dc 83370500 		ld	a5,0(a0)
 310              		.loc 1 46 5
 311 01e0 63960700 		bnez	a5,.L28
  47:src/tcb.cpp   ****     return 0;
 312              		.loc 1 47 12
 313 01e4 13050000 		li	a0,0
 314              	.LVL21:
  48:src/tcb.cpp   **** }
 315              		.loc 1 48 1
 316 01e8 67800000 		ret
 317              	.LVL22:
 318              	.L28:
  43:src/tcb.cpp   ****     if(this->state != CREATED) return -1;
 319              		.loc 1 43 18 discriminator 1
 320 01ec 130101FF 		addi	sp,sp,-16
 321              		.cfi_def_cfa_offset 16
 322 01f0 23341100 		sd	ra,8(sp)
 323 01f4 23308100 		sd	s0,0(sp)
 324              		.cfi_offset 1, -8
 325              		.cfi_offset 8, -16
 326 01f8 13040101 		addi	s0,sp,16
 327              		.cfi_def_cfa 8, 0
  46:src/tcb.cpp   ****     return 0;
 328              		.loc 1 46 26 is_stmt 1 discriminator 1
  46:src/tcb.cpp   ****     return 0;
GAS LISTING /tmp/cc7QZut1.s 			page 9


 329              		.loc 1 46 40 is_stmt 0 discriminator 1
 330 01fc 97000000 		call	_ZN9Scheduler3putEP3TCB@plt
 330      E7800000 
 331              	.LVL23:
  47:src/tcb.cpp   **** }
 332              		.loc 1 47 12 discriminator 1
 333 0204 13050000 		li	a0,0
 334              		.loc 1 48 1 discriminator 1
 335 0208 83308100 		ld	ra,8(sp)
 336              		.cfi_restore 1
 337 020c 03340100 		ld	s0,0(sp)
 338              		.cfi_restore 8
 339              		.cfi_def_cfa 2, 16
 340 0210 13010101 		addi	sp,sp,16
 341              		.cfi_def_cfa_offset 0
 342 0214 67800000 		jr	ra
 343              	.LVL24:
 344              	.L22:
  44:src/tcb.cpp   ****     this->state = READY;
 345              		.loc 1 44 40
 346 0218 1305F0FF 		li	a0,-1
 347              	.LVL25:
 348 021c 67800000 		ret
 349              		.cfi_endproc
 350              	.LFE46:
 352              		.globl	_ZN3TCB2IDE
 353              		.globl	_ZN3TCB16timeSliceCounterE
 354              		.globl	_ZN3TCB7runningE
 355              		.bss
 356              		.align	3
 357              		.set	.LANCHOR0,. + 0
 360              	_ZN3TCB7runningE:
 361 0000 00000000 		.zero	8
 361      00000000 
 364              	_ZN3TCB2IDE:
 365 0008 00000000 		.zero	8
 365      00000000 
 368              	_ZN3TCB16timeSliceCounterE:
 369 0010 00000000 		.zero	8
 369      00000000 
 370              		.text
 371              	.Letext0:
 372              		.file 3 "src/../h/../lib/hw.h"
 373              		.file 4 "src/../h/scheduler.hpp"
 374              		.file 5 "src/../h/riscv.hpp"
 375              		.file 6 "src/../h/../test/../h/syscall_c.hpp"
GAS LISTING /tmp/cc7QZut1.s 			page 10


DEFINED SYMBOLS
                            *ABS*:0000000000000000 tcb.cpp
     /tmp/cc7QZut1.s:9      .text:0000000000000000 _ZN3TCB13threadWrapperEv
     /tmp/cc7QZut1.s:13     .text:0000000000000000 .L0 
     /tmp/cc7QZut1.s:14     .text:0000000000000000 .L0 
     /tmp/cc7QZut1.s:15     .text:0000000000000004 .L0 
     /tmp/cc7QZut1.s:18     .text:000000000000000c .L0 
     /tmp/cc7QZut1.s:19     .text:000000000000000c .L0 
     /tmp/cc7QZut1.s:21     .text:0000000000000010 .L0 
     /tmp/cc7QZut1.s:23     .text:0000000000000010 .L0 
     /tmp/cc7QZut1.s:24     .text:0000000000000010 .L0 
     /tmp/cc7QZut1.s:27     .text:0000000000000018 .L0 
     /tmp/cc7QZut1.s:28     .text:0000000000000018 .L0 
     /tmp/cc7QZut1.s:31     .text:0000000000000024 .L0 
     /tmp/cc7QZut1.s:35     .text:000000000000002c .L0 
     /tmp/cc7QZut1.s:36     .text:000000000000002c .L0 
     /tmp/cc7QZut1.s:39     .text:0000000000000034 .L0 
     /tmp/cc7QZut1.s:40     .text:0000000000000038 .L0 
     /tmp/cc7QZut1.s:42     .text:000000000000003c .L0 
     /tmp/cc7QZut1.s:43     .text:000000000000003c .L0 
     /tmp/cc7QZut1.s:45     .text:0000000000000040 .L0 
     /tmp/cc7QZut1.s:47     .text:0000000000000044 .L0 
     /tmp/cc7QZut1.s:53     .text:0000000000000044 _ZN3TCB12createThreadEPFvPvES0_Pm
     /tmp/cc7QZut1.s:56     .text:0000000000000044 .L0 
     /tmp/cc7QZut1.s:58     .text:0000000000000044 .L0 
     /tmp/cc7QZut1.s:59     .text:0000000000000048 .L0 
     /tmp/cc7QZut1.s:65     .text:000000000000005c .L0 
     /tmp/cc7QZut1.s:66     .text:000000000000005c .L0 
     /tmp/cc7QZut1.s:67     .text:000000000000005c .L0 
     /tmp/cc7QZut1.s:68     .text:000000000000005c .L0 
     /tmp/cc7QZut1.s:69     .text:000000000000005c .L0 
     /tmp/cc7QZut1.s:71     .text:0000000000000060 .L0 
     /tmp/cc7QZut1.s:76     .text:000000000000006c .L0 
     /tmp/cc7QZut1.s:77     .text:000000000000006c .L0 
     /tmp/cc7QZut1.s:85     .text:0000000000000078 .L0 
     /tmp/cc7QZut1.s:88     .text:0000000000000080 .L0 
     /tmp/cc7QZut1.s:92     .text:0000000000000088 .L0 
     /tmp/cc7QZut1.s:96     .text:0000000000000098 .L0 
     /tmp/cc7QZut1.s:98     .text:000000000000009c .L0 
     /tmp/cc7QZut1.s:103    .text:00000000000000a4 .L0 
     /tmp/cc7QZut1.s:107    .text:00000000000000b0 .L0 
     /tmp/cc7QZut1.s:108    .text:00000000000000b0 .L0 
     /tmp/cc7QZut1.s:113    .text:00000000000000c4 .L0 
     /tmp/cc7QZut1.s:115    .text:00000000000000c8 .L0 
     /tmp/cc7QZut1.s:116    .text:00000000000000c8 .L0 
     /tmp/cc7QZut1.s:121    .text:00000000000000cc .L0 
     /tmp/cc7QZut1.s:122    .text:00000000000000d0 .L0 
     /tmp/cc7QZut1.s:123    .text:00000000000000d0 .L0 
     /tmp/cc7QZut1.s:125    .text:00000000000000d4 .L0 
     /tmp/cc7QZut1.s:126    .text:00000000000000d4 .L0 
     /tmp/cc7QZut1.s:128    .text:00000000000000d8 .L0 
     /tmp/cc7QZut1.s:130    .text:00000000000000dc .L0 
     /tmp/cc7QZut1.s:133    .text:00000000000000e0 .L0 
     /tmp/cc7QZut1.s:136    .text:00000000000000e4 .L0 
     /tmp/cc7QZut1.s:140    .text:00000000000000e8 .L0 
     /tmp/cc7QZut1.s:144    .text:00000000000000e8 .L0 
     /tmp/cc7QZut1.s:148    .text:00000000000000f0 .L0 
GAS LISTING /tmp/cc7QZut1.s 			page 11


     /tmp/cc7QZut1.s:153    .text:00000000000000f8 .L0 
     /tmp/cc7QZut1.s:159    .text:00000000000000f8 _ZN3TCB8dispatchEv
     /tmp/cc7QZut1.s:162    .text:00000000000000f8 .L0 
     /tmp/cc7QZut1.s:163    .text:00000000000000f8 .L0 
     /tmp/cc7QZut1.s:164    .text:00000000000000fc .L0 
     /tmp/cc7QZut1.s:168    .text:0000000000000108 .L0 
     /tmp/cc7QZut1.s:169    .text:0000000000000108 .L0 
     /tmp/cc7QZut1.s:170    .text:0000000000000108 .L0 
     /tmp/cc7QZut1.s:172    .text:000000000000010c .L0 
     /tmp/cc7QZut1.s:174    .text:000000000000010c .L0 
     /tmp/cc7QZut1.s:175    .text:000000000000010c .L0 
     /tmp/cc7QZut1.s:178    .text:0000000000000118 .L0 
     /tmp/cc7QZut1.s:179    .text:0000000000000118 .L0 
     /tmp/cc7QZut1.s:184    .text:000000000000011c .L0 
     /tmp/cc7QZut1.s:185    .text:000000000000011c .L0 
     /tmp/cc7QZut1.s:186    .text:000000000000011c .L0 
     /tmp/cc7QZut1.s:191    .text:0000000000000120 .L0 
     /tmp/cc7QZut1.s:195    .text:0000000000000128 .L0 
     /tmp/cc7QZut1.s:196    .text:0000000000000128 .L0 
     /tmp/cc7QZut1.s:199    .text:0000000000000130 .L0 
     /tmp/cc7QZut1.s:201    .text:0000000000000138 .L0 
     /tmp/cc7QZut1.s:202    .text:0000000000000138 .L0 
     /tmp/cc7QZut1.s:205    .text:0000000000000140 .L0 
     /tmp/cc7QZut1.s:206    .text:0000000000000140 .L0 
     /tmp/cc7QZut1.s:211    .text:0000000000000150 .L0 
     /tmp/cc7QZut1.s:212    .text:0000000000000154 .L0 
     /tmp/cc7QZut1.s:213    .text:0000000000000154 .L0 
     /tmp/cc7QZut1.s:215    .text:0000000000000158 .L0 
     /tmp/cc7QZut1.s:216    .text:0000000000000158 .L0 
     /tmp/cc7QZut1.s:218    .text:000000000000015c .L0 
     /tmp/cc7QZut1.s:221    .text:0000000000000160 .L0 
     /tmp/cc7QZut1.s:225    .text:0000000000000164 .L0 
     /tmp/cc7QZut1.s:227    .text:0000000000000164 .L0 
     /tmp/cc7QZut1.s:228    .text:0000000000000164 .L0 
     /tmp/cc7QZut1.s:231    .text:000000000000016c .L0 
     /tmp/cc7QZut1.s:232    .text:000000000000016c .L0 
     /tmp/cc7QZut1.s:236    .text:000000000000017c .L0 
     /tmp/cc7QZut1.s:242    .text:000000000000017c _ZN3TCB4exitEv
     /tmp/cc7QZut1.s:245    .text:000000000000017c .L0 
     /tmp/cc7QZut1.s:246    .text:000000000000017c .L0 
     /tmp/cc7QZut1.s:247    .text:000000000000017c .L0 
     /tmp/cc7QZut1.s:248    .text:000000000000017c .L0 
     /tmp/cc7QZut1.s:251    .text:0000000000000188 .L0 
     /tmp/cc7QZut1.s:254    .text:0000000000000190 .L0 
     /tmp/cc7QZut1.s:255    .text:0000000000000194 .L0 
     /tmp/cc7QZut1.s:258    .text:000000000000019c .L0 
     /tmp/cc7QZut1.s:259    .text:000000000000019c .L0 
     /tmp/cc7QZut1.s:261    .text:00000000000001a0 .L0 
     /tmp/cc7QZut1.s:263    .text:00000000000001a0 .L0 
     /tmp/cc7QZut1.s:264    .text:00000000000001a0 .L0 
     /tmp/cc7QZut1.s:267    .text:00000000000001a8 .L0 
     /tmp/cc7QZut1.s:268    .text:00000000000001a8 .L0 
     /tmp/cc7QZut1.s:271    .text:00000000000001b0 .L0 
     /tmp/cc7QZut1.s:272    .text:00000000000001b0 .L0 
     /tmp/cc7QZut1.s:274    .text:00000000000001b4 .L0 
     /tmp/cc7QZut1.s:275    .text:00000000000001b8 .L0 
     /tmp/cc7QZut1.s:277    .text:00000000000001bc .L0 
GAS LISTING /tmp/cc7QZut1.s 			page 12


     /tmp/cc7QZut1.s:278    .text:00000000000001bc .L0 
     /tmp/cc7QZut1.s:280    .text:00000000000001c0 .L0 
     /tmp/cc7QZut1.s:284    .text:00000000000001c4 .L0 
     /tmp/cc7QZut1.s:286    .text:00000000000001c8 .L0 
     /tmp/cc7QZut1.s:287    .text:00000000000001cc .L0 
     /tmp/cc7QZut1.s:293    .text:00000000000001cc _ZN3TCB5startEv
     /tmp/cc7QZut1.s:296    .text:00000000000001cc .L0 
     /tmp/cc7QZut1.s:298    .text:00000000000001cc .L0 
     /tmp/cc7QZut1.s:299    .text:00000000000001cc .L0 
     /tmp/cc7QZut1.s:300    .text:00000000000001cc .L0 
     /tmp/cc7QZut1.s:302    .text:00000000000001d0 .L0 
     /tmp/cc7QZut1.s:304    .text:00000000000001d4 .L0 
     /tmp/cc7QZut1.s:305    .text:00000000000001d4 .L0 
     /tmp/cc7QZut1.s:308    .text:00000000000001dc .L0 
     /tmp/cc7QZut1.s:309    .text:00000000000001dc .L0 
     /tmp/cc7QZut1.s:311    .text:00000000000001e0 .L0 
     /tmp/cc7QZut1.s:313    .text:00000000000001e4 .L0 
     /tmp/cc7QZut1.s:316    .text:00000000000001e8 .L0 
     /tmp/cc7QZut1.s:320    .text:00000000000001ec .L0 
     /tmp/cc7QZut1.s:321    .text:00000000000001f0 .L0 
     /tmp/cc7QZut1.s:324    .text:00000000000001f8 .L0 
     /tmp/cc7QZut1.s:325    .text:00000000000001f8 .L0 
     /tmp/cc7QZut1.s:327    .text:00000000000001fc .L0 
     /tmp/cc7QZut1.s:329    .text:00000000000001fc .L0 
     /tmp/cc7QZut1.s:330    .text:00000000000001fc .L0 
     /tmp/cc7QZut1.s:333    .text:0000000000000204 .L0 
     /tmp/cc7QZut1.s:335    .text:0000000000000208 .L0 
     /tmp/cc7QZut1.s:336    .text:000000000000020c .L0 
     /tmp/cc7QZut1.s:338    .text:0000000000000210 .L0 
     /tmp/cc7QZut1.s:339    .text:0000000000000210 .L0 
     /tmp/cc7QZut1.s:341    .text:0000000000000214 .L0 
     /tmp/cc7QZut1.s:346    .text:0000000000000218 .L0 
     /tmp/cc7QZut1.s:349    .text:0000000000000220 .L0 
     /tmp/cc7QZut1.s:364    .bss:0000000000000008 _ZN3TCB2IDE
     /tmp/cc7QZut1.s:368    .bss:0000000000000010 _ZN3TCB16timeSliceCounterE
     /tmp/cc7QZut1.s:360    .bss:0000000000000000 _ZN3TCB7runningE
     /tmp/cc7QZut1.s:357    .bss:0000000000000000 .LANCHOR0
     /tmp/cc7QZut1.s:376    .text:0000000000000220 .L0 
     /tmp/cc7QZut1.s:28     .text:0000000000000018 .L0 
     /tmp/cc7QZut1.s:93     .text:000000000000008c .L0 
     /tmp/cc7QZut1.s:108    .text:00000000000000b0 .L0 
     /tmp/cc7QZut1.s:175    .text:000000000000010c .L0 
     /tmp/cc7QZut1.s:199    .text:0000000000000130 .L0 
     /tmp/cc7QZut1.s:248    .text:000000000000017c .L0 
     /tmp/cc7QZut1.s:139    .text:00000000000000e8 .L6
     /tmp/cc7QZut1.s:146    .text:00000000000000f0 .L7
     /tmp/cc7QZut1.s:90     .text:0000000000000088 .L4
     /tmp/cc7QZut1.s:101    .text:00000000000000a4 .L5
     /tmp/cc7QZut1.s:224    .text:0000000000000164 .L12
     /tmp/cc7QZut1.s:193    .text:0000000000000128 .L10
     /tmp/cc7QZut1.s:282    .text:00000000000001c4 .L15
     /tmp/cc7QZut1.s:344    .text:0000000000000218 .L22
     /tmp/cc7QZut1.s:318    .text:00000000000001ec .L28
     /tmp/cc7QZut1.s:1373   .debug_abbrev:0000000000000000 .Ldebug_abbrev0
     /tmp/cc7QZut1.s:2800   .debug_str:00000000000005ac .LASF112
     /tmp/cc7QZut1.s:2708   .debug_str:0000000000000336 .LASF113
     /tmp/cc7QZut1.s:2754   .debug_str:0000000000000454 .LASF114
GAS LISTING /tmp/cc7QZut1.s 			page 13


     /tmp/cc7QZut1.s:5      .text:0000000000000000 .Ltext0
     /tmp/cc7QZut1.s:371    .text:0000000000000220 .Letext0
     /tmp/cc7QZut1.s:2586   .debug_line:0000000000000000 .Ldebug_line0
     /tmp/cc7QZut1.s:2722   .debug_str:0000000000000393 .LASF0
     /tmp/cc7QZut1.s:2736   .debug_str:00000000000003cb .LASF1
     /tmp/cc7QZut1.s:2714   .debug_str:0000000000000357 .LASF2
     /tmp/cc7QZut1.s:2688   .debug_str:00000000000002bd .LASF4
     /tmp/cc7QZut1.s:2774   .debug_str:00000000000004f2 .LASF3
     /tmp/cc7QZut1.s:2612   .debug_str:0000000000000083 .LASF5
     /tmp/cc7QZut1.s:2740   .debug_str:00000000000003e6 .LASF6
     /tmp/cc7QZut1.s:2720   .debug_str:0000000000000380 .LASF7
     /tmp/cc7QZut1.s:2812   .debug_str:00000000000006b0 .LASF8
     /tmp/cc7QZut1.s:2676   .debug_str:000000000000024b .LASF9
     /tmp/cc7QZut1.s:2756   .debug_str:0000000000000470 .LASF10
     /tmp/cc7QZut1.s:2804   .debug_str:0000000000000678 .LASF11
     /tmp/cc7QZut1.s:2618   .debug_str:0000000000000094 .LASF12
     /tmp/cc7QZut1.s:2590   .debug_str:0000000000000008 .LASF13
     /tmp/cc7QZut1.s:2634   .debug_str:0000000000000116 .LASF14
     /tmp/cc7QZut1.s:2766   .debug_str:00000000000004ae .LASF15
     /tmp/cc7QZut1.s:2642   .debug_str:0000000000000142 .LASF16
     /tmp/cc7QZut1.s:2752   .debug_str:000000000000044a .LASF17
     /tmp/cc7QZut1.s:2668   .debug_str:000000000000020a .LASF33
     /tmp/cc7QZut1.s:2682   .debug_str:0000000000000275 .LASF115
     /tmp/cc7QZut1.s:2630   .debug_str:00000000000000f4 .LASF116
     /tmp/cc7QZut1.s:2704   .debug_str:000000000000031f .LASF117
     /tmp/cc7QZut1.s:2680   .debug_str:000000000000026f .LASF118
     /tmp/cc7QZut1.s:2802   .debug_str:0000000000000670 .LASF18
     /tmp/cc7QZut1.s:2786   .debug_str:0000000000000548 .LASF19
     /tmp/cc7QZut1.s:2748   .debug_str:000000000000042c .LASF20
     /tmp/cc7QZut1.s:2784   .debug_str:000000000000053f .LASF21
     /tmp/cc7QZut1.s:2598   .debug_str:000000000000003b .LASF119
     /tmp/cc7QZut1.s:2652   .debug_str:00000000000001a5 .LASF28
     /tmp/cc7QZut1.s:2760   .debug_str:0000000000000492 .LASF30
     /tmp/cc7QZut1.s:2742   .debug_str:00000000000003f9 .LASF22
     /tmp/cc7QZut1.s:2674   .debug_str:0000000000000234 .LASF24
     /tmp/cc7QZut1.s:2706   .debug_str:0000000000000329 .LASF23
     /tmp/cc7QZut1.s:2610   .debug_str:000000000000006a .LASF25
     /tmp/cc7QZut1.s:2734   .debug_str:00000000000003c5 .LASF26
     /tmp/cc7QZut1.s:2712   .debug_str:0000000000000347 .LASF27
     /tmp/cc7QZut1.s:2698   .debug_str:00000000000002ed .LASF29
     /tmp/cc7QZut1.s:2828   .debug_str:000000000000072d .LASF31
     /tmp/cc7QZut1.s:2762   .debug_str:000000000000049e .LASF32
     /tmp/cc7QZut1.s:2656   .debug_str:00000000000001b3 .LASF120
     /tmp/cc7QZut1.s:2746   .debug_str:0000000000000415 .LASF121
     /tmp/cc7QZut1.s:2692   .debug_str:00000000000002d5 .LASF34
     /tmp/cc7QZut1.s:2636   .debug_str:0000000000000122 .LASF35
     /tmp/cc7QZut1.s:2696   .debug_str:00000000000002e5 .LASF36
     /tmp/cc7QZut1.s:2728   .debug_str:00000000000003b0 .LASF37
     /tmp/cc7QZut1.s:2606   .debug_str:000000000000005f .LASF38
     /tmp/cc7QZut1.s:2700   .debug_str:00000000000002fa .LASF40
     /tmp/cc7QZut1.s:2626   .debug_str:00000000000000bf .LASF42
     /tmp/cc7QZut1.s:2816   .debug_str:00000000000006d5 .LASF39
     /tmp/cc7QZut1.s:2684   .debug_str:0000000000000289 .LASF122
     /tmp/cc7QZut1.s:2726   .debug_str:00000000000003a7 .LASF41
     /tmp/cc7QZut1.s:2662   .debug_str:00000000000001d7 .LASF43
     /tmp/cc7QZut1.s:2772   .debug_str:00000000000004ed .LASF47
     /tmp/cc7QZut1.s:2832   .debug_str:0000000000000767 .LASF49
GAS LISTING /tmp/cc7QZut1.s 			page 14


     /tmp/cc7QZut1.s:2776   .debug_str:0000000000000504 .LASF44
     /tmp/cc7QZut1.s:2664   .debug_str:00000000000001ea .LASF45
     /tmp/cc7QZut1.s:2732   .debug_str:00000000000003bf .LASF46
     /tmp/cc7QZut1.s:2764   .debug_str:00000000000004a3 .LASF48
     /tmp/cc7QZut1.s:2830   .debug_str:000000000000074f .LASF50
     /tmp/cc7QZut1.s:2592   .debug_str:0000000000000018 .LASF51
     /tmp/cc7QZut1.s:2788   .debug_str:000000000000054e .LASF54
     /tmp/cc7QZut1.s:2654   .debug_str:00000000000001aa .LASF52
     /tmp/cc7QZut1.s:2638   .debug_str:0000000000000128 .LASF57
     /tmp/cc7QZut1.s:2778   .debug_str:0000000000000515 .LASF53
     /tmp/cc7QZut1.s:2758   .debug_str:000000000000047f .LASF55
     /tmp/cc7QZut1.s:2798   .debug_str:00000000000005a5 .LASF56
     /tmp/cc7QZut1.s:2792   .debug_str:000000000000057b .LASF58
     /tmp/cc7QZut1.s:2738   .debug_str:00000000000003de .LASF59
     /tmp/cc7QZut1.s:2644   .debug_str:0000000000000158 .LASF60
     /tmp/cc7QZut1.s:2588   .debug_str:0000000000000000 .LASF61
     /tmp/cc7QZut1.s:2780   .debug_str:000000000000051c .LASF62
     /tmp/cc7QZut1.s:2658   .debug_str:00000000000001bb .LASF63
     /tmp/cc7QZut1.s:2818   .debug_str:00000000000006e3 .LASF64
     /tmp/cc7QZut1.s:2838   .debug_str:000000000000078d .LASF65
     /tmp/cc7QZut1.s:2660   .debug_str:00000000000001c3 .LASF66
     /tmp/cc7QZut1.s:2724   .debug_str:00000000000003a0 .LASF67
     /tmp/cc7QZut1.s:2826   .debug_str:000000000000071a .LASF68
     /tmp/cc7QZut1.s:2808   .debug_str:0000000000000698 .LASF69
     /tmp/cc7QZut1.s:2670   .debug_str:000000000000021b .LASF70
     /tmp/cc7QZut1.s:2672   .debug_str:000000000000022e .LASF71
     /tmp/cc7QZut1.s:2796   .debug_str:0000000000000593 .LASF72
     /tmp/cc7QZut1.s:2604   .debug_str:0000000000000059 .LASF73
     /tmp/cc7QZut1.s:2842   .debug_str:00000000000007a6 .LASF74
     /tmp/cc7QZut1.s:2836   .debug_str:0000000000000782 .LASF75
     /tmp/cc7QZut1.s:2770   .debug_str:00000000000004d5 .LASF76
     /tmp/cc7QZut1.s:2694   .debug_str:00000000000002da .LASF77
     /tmp/cc7QZut1.s:2790   .debug_str:0000000000000563 .LASF78
     /tmp/cc7QZut1.s:2632   .debug_str:000000000000010c .LASF79
     /tmp/cc7QZut1.s:2750   .debug_str:0000000000000434 .LASF80
     /tmp/cc7QZut1.s:2716   .debug_str:0000000000000365 .LASF81
     /tmp/cc7QZut1.s:2678   .debug_str:0000000000000259 .LASF82
     /tmp/cc7QZut1.s:2794   .debug_str:000000000000058e .LASF83
     /tmp/cc7QZut1.s:2744   .debug_str:0000000000000404 .LASF84
     /tmp/cc7QZut1.s:2614   .debug_str:000000000000008a .LASF85
     /tmp/cc7QZut1.s:2718   .debug_str:000000000000036f .LASF86
     /tmp/cc7QZut1.s:2602   .debug_str:0000000000000054 .LASF87
     /tmp/cc7QZut1.s:2690   .debug_str:00000000000002c4 .LASF88
     /tmp/cc7QZut1.s:2616   .debug_str:000000000000008f .LASF89
     /tmp/cc7QZut1.s:2646   .debug_str:000000000000016c .LASF90
     /tmp/cc7QZut1.s:2608   .debug_str:0000000000000065 .LASF91
     /tmp/cc7QZut1.s:2806   .debug_str:0000000000000687 .LASF92
     /tmp/cc7QZut1.s:2730   .debug_str:00000000000003ba .LASF93
     /tmp/cc7QZut1.s:2624   .debug_str:00000000000000ae .LASF94
     /tmp/cc7QZut1.s:2824   .debug_str:0000000000000715 .LASF95
     /tmp/cc7QZut1.s:2768   .debug_str:00000000000004c4 .LASF96
     /tmp/cc7QZut1.s:2620   .debug_str:00000000000000a4 .LASF97
     /tmp/cc7QZut1.s:2594   .debug_str:0000000000000021 .LASF98
     /tmp/cc7QZut1.s:2710   .debug_str:0000000000000342 .LASF99
     /tmp/cc7QZut1.s:2820   .debug_str:00000000000006f7 .LASF100
     /tmp/cc7QZut1.s:2622   .debug_str:00000000000000a9 .LASF101
     /tmp/cc7QZut1.s:2600   .debug_str:0000000000000043 .LASF102
GAS LISTING /tmp/cc7QZut1.s 			page 15


     /tmp/cc7QZut1.s:2782   .debug_str:0000000000000530 .LASF103
     /tmp/cc7QZut1.s:2628   .debug_str:00000000000000d8 .LASF104
     /tmp/cc7QZut1.s:2814   .debug_str:00000000000006c0 .LASF105
     /tmp/cc7QZut1.s:2650   .debug_str:0000000000000183 .LASF106
     /tmp/cc7QZut1.s:2596   .debug_str:0000000000000032 .LASF107
     /tmp/cc7QZut1.s:2840   .debug_str:0000000000000795 .LASF108
     /tmp/cc7QZut1.s:2666   .debug_str:00000000000001ef .LASF109
     /tmp/cc7QZut1.s:2686   .debug_str:00000000000002b1 .LASF110
     /tmp/cc7QZut1.s:294    .text:00000000000001cc .LFB46
     /tmp/cc7QZut1.s:350    .text:0000000000000220 .LFE46
     /tmp/cc7QZut1.s:2640   .debug_str:000000000000013d .LASF111
     /tmp/cc7QZut1.s:2371   .debug_loc:0000000000000000 .LLST10
     /tmp/cc7QZut1.s:331    .text:0000000000000204 .LVL23
     /tmp/cc7QZut1.s:243    .text:000000000000017c .LFB45
     /tmp/cc7QZut1.s:288    .text:00000000000001cc .LFE45
     /tmp/cc7QZut1.s:269    .text:00000000000001b0 .LVL19
     /tmp/cc7QZut1.s:10     .text:0000000000000000 .LFB44
     /tmp/cc7QZut1.s:48     .text:0000000000000044 .LFE44
     /tmp/cc7QZut1.s:25     .text:0000000000000018 .LVL0
     /tmp/cc7QZut1.s:37     .text:0000000000000034 .LVL2
     /tmp/cc7QZut1.s:160    .text:00000000000000f8 .LFB43
     /tmp/cc7QZut1.s:237    .text:000000000000017c .LFE43
     /tmp/cc7QZut1.s:2407   .debug_loc:000000000000008b .LLST8
     /tmp/cc7QZut1.s:182    .text:000000000000011c .LBB11
     /tmp/cc7QZut1.s:189    .text:0000000000000120 .LBE11
     /tmp/cc7QZut1.s:2418   .debug_loc:00000000000000c1 .LLST9
     /tmp/cc7QZut1.s:197    .text:0000000000000130 .LVL14
     /tmp/cc7QZut1.s:209    .text:0000000000000150 .LVL15
     /tmp/cc7QZut1.s:234    .text:0000000000000178 .LVL18
     /tmp/cc7QZut1.s:54     .text:0000000000000044 .LFB42
     /tmp/cc7QZut1.s:154    .text:00000000000000f8 .LFE42
     /tmp/cc7QZut1.s:2425   .debug_loc:00000000000000e4 .LLST0
     /tmp/cc7QZut1.s:2445   .debug_loc:0000000000000141 .LLST1
     /tmp/cc7QZut1.s:2465   .debug_loc:000000000000019e .LLST2
     /tmp/cc7QZut1.s:81     .text:0000000000000078 .LBB7
     /tmp/cc7QZut1.s:2578   .debug_ranges:0000000000000000 .Ldebug_ranges0
     /tmp/cc7QZut1.s:2494   .debug_loc:0000000000000213 .LLST3
     /tmp/cc7QZut1.s:2507   .debug_loc:000000000000024b .LLST4
     /tmp/cc7QZut1.s:2532   .debug_loc:00000000000002ad .LLST5
     /tmp/cc7QZut1.s:2543   .debug_loc:00000000000002e3 .LLST6
     /tmp/cc7QZut1.s:2554   .debug_loc:0000000000000319 .LLST7
     /tmp/cc7QZut1.s:80     .text:0000000000000078 .LVL5
     /tmp/cc7QZut1.s:2702   .debug_str:0000000000000308 .LASF123
     /tmp/cc7QZut1.s:2810   .debug_str:000000000000069f .LASF124
     /tmp/cc7QZut1.s:2834   .debug_str:0000000000000776 .LASF125
     /tmp/cc7QZut1.s:2648   .debug_str:000000000000017d .LASF126
     /tmp/cc7QZut1.s:2822   .debug_str:0000000000000708 .LASF127
     /tmp/cc7QZut1.s:297    .text:00000000000001cc .LVL20
     /tmp/cc7QZut1.s:314    .text:00000000000001e8 .LVL21
     /tmp/cc7QZut1.s:317    .text:00000000000001ec .LVL22
     /tmp/cc7QZut1.s:343    .text:0000000000000218 .LVL24
     /tmp/cc7QZut1.s:347    .text:000000000000021c .LVL25
     /tmp/cc7QZut1.s:180    .text:000000000000011c .LVL12
     /tmp/cc7QZut1.s:219    .text:000000000000015c .LVL16
     /tmp/cc7QZut1.s:223    .text:0000000000000164 .LVL17
     /tmp/cc7QZut1.s:187    .text:0000000000000120 .LVL13
     /tmp/cc7QZut1.s:57     .text:0000000000000044 .LVL3
GAS LISTING /tmp/cc7QZut1.s 			page 16


     /tmp/cc7QZut1.s:78     .text:0000000000000070 .LVL4
     /tmp/cc7QZut1.s:131    .text:00000000000000dc .LVL8
     /tmp/cc7QZut1.s:138    .text:00000000000000e8 .LVL10
     /tmp/cc7QZut1.s:134    .text:00000000000000e0 .LVL9
     /tmp/cc7QZut1.s:100    .text:00000000000000a4 .LVL6
     /tmp/cc7QZut1.s:149    .text:00000000000000f4 .LVL11
     /tmp/cc7QZut1.s:117    .text:00000000000000cc .LVL7
     /tmp/cc7QZut1.s:377    .debug_info:0000000000000000 .Ldebug_info0
     /tmp/cc7QZut1.s:119    .text:00000000000000cc .LBE7
     /tmp/cc7QZut1.s:141    .text:00000000000000e8 .LBB10
     /tmp/cc7QZut1.s:152    .text:00000000000000f8 .LBE10

UNDEFINED SYMBOLS
_ZN5Riscv10popSppSpieEv
_Z11thread_exitv
_Znwm
_ZN9Scheduler3getEv
_ZN3TCB13contextSwitchEPNS_7ContextES1_
_ZN9Scheduler3putEP3TCB
