GAS LISTING /tmp/cc7QZut1.s 			page 1


   1              		.file	"tcb.cpp"
   2              		.option pic
   3              		.option norelax
   4              		.text
   5              	.Ltext0:
   6              		.align	2
   7              		.globl	_ZN3TCB13threadWrapperEv
   9              	_ZN3TCB13threadWrapperEv:
  10              	.LFB44:
  11              		.file 1 "src/tcb.cpp"
   1:src/tcb.cpp   **** #include "../h/tcb.hpp"
   2:src/tcb.cpp   **** #include "../h/riscv.hpp"
   3:src/tcb.cpp   **** 
   4:src/tcb.cpp   **** TCB *TCB::running = nullptr;
   5:src/tcb.cpp   **** uint64 TCB::timeSliceCounter = 0;
   6:src/tcb.cpp   **** uint64 TCB::ID = 0;
   7:src/tcb.cpp   **** 
   8:src/tcb.cpp   **** TCB *TCB::createThread(Body body, Arg arg, uint64* stack) {
   9:src/tcb.cpp   ****     return new TCB(body, arg, stack, DEFAULT_TIME_SLICE);
  10:src/tcb.cpp   **** }
  11:src/tcb.cpp   **** 
  12:src/tcb.cpp   **** void TCB::dispatch() {
  13:src/tcb.cpp   ****     TCB::timeSliceCounter = 0;
  14:src/tcb.cpp   **** 
  15:src/tcb.cpp   ****     TCB *old = running;
  16:src/tcb.cpp   **** 
  17:src/tcb.cpp   ****     if (!old->isFinished()) {
  18:src/tcb.cpp   ****         old->state = READY;
  19:src/tcb.cpp   ****         Scheduler::put(old);
  20:src/tcb.cpp   ****     }
  21:src/tcb.cpp   **** 
  22:src/tcb.cpp   ****     running = Scheduler::get();
  23:src/tcb.cpp   ****     running->state = RUNNING;
  24:src/tcb.cpp   **** 
  25:src/tcb.cpp   ****     TCB::contextSwitch(&old->context, &running->context);
  26:src/tcb.cpp   **** }
  27:src/tcb.cpp   **** 
  28:src/tcb.cpp   **** void TCB::threadWrapper() {
  12              		.loc 1 28 27
  13              		.cfi_startproc
  14 0000 130101FF 		addi	sp,sp,-16
  15              		.cfi_def_cfa_offset 16
  16 0004 23341100 		sd	ra,8(sp)
  17 0008 23308100 		sd	s0,0(sp)
  18              		.cfi_offset 1, -8
  19              		.cfi_offset 8, -16
  20 000c 13040101 		addi	s0,sp,16
  21              		.cfi_def_cfa 8, 0
  29:src/tcb.cpp   ****     Riscv::popSppSpie();
  22              		.loc 1 29 5
  23              		.loc 1 29 22 is_stmt 0
  24 0010 97000000 		call	_ZN5Riscv10popSppSpieEv@plt
  24      E7800000 
  25              	.LVL0:
  30:src/tcb.cpp   ****     running->body(running->arg);
  26              		.loc 1 30 5 is_stmt 1
  27              		.loc 1 30 14 is_stmt 0
GAS LISTING /tmp/cc7QZut1.s 			page 2


  28 0018 97070000 		ld	a5,.LANCHOR0
  28      83B70700 
  29 0020 03B78700 		ld	a4,8(a5)
  30              		.loc 1 30 18
  31 0024 03B50701 		ld	a0,16(a5)
  32 0028 E7000700 		jalr	a4
  33              	.LVL1:
  31:src/tcb.cpp   ****     thread_exit();
  34              		.loc 1 31 5 is_stmt 1
  35              		.loc 1 31 16 is_stmt 0
  36 002c 97000000 		call	_Z11thread_exitv@plt
  36      E7800000 
  37              	.LVL2:
  32:src/tcb.cpp   **** }
  38              		.loc 1 32 1
  39 0034 83308100 		ld	ra,8(sp)
  40              		.cfi_restore 1
  41 0038 03340100 		ld	s0,0(sp)
  42              		.cfi_restore 8
  43              		.cfi_def_cfa 2, 16
  44 003c 13010101 		addi	sp,sp,16
  45              		.cfi_def_cfa_offset 0
  46 0040 67800000 		jr	ra
  47              		.cfi_endproc
  48              	.LFE44:
  50              		.align	2
  51              		.globl	_ZN3TCB12createThreadEPFvPvES0_Pm
  53              	_ZN3TCB12createThreadEPFvPvES0_Pm:
  54              	.LFB42:
   8:src/tcb.cpp   ****     return new TCB(body, arg, stack, DEFAULT_TIME_SLICE);
  55              		.loc 1 8 59 is_stmt 1
  56              		.cfi_startproc
  57              	.LVL3:
  58 0044 130101FD 		addi	sp,sp,-48
  59              		.cfi_def_cfa_offset 48
  60 0048 23341102 		sd	ra,40(sp)
  61 004c 23308102 		sd	s0,32(sp)
  62 0050 233C9100 		sd	s1,24(sp)
  63 0054 23382101 		sd	s2,16(sp)
  64 0058 23343101 		sd	s3,8(sp)
  65              		.cfi_offset 1, -8
  66              		.cfi_offset 8, -16
  67              		.cfi_offset 9, -24
  68              		.cfi_offset 18, -32
  69              		.cfi_offset 19, -40
  70 005c 13040103 		addi	s0,sp,48
  71              		.cfi_def_cfa 8, 0
  72 0060 13090500 		mv	s2,a0
  73 0064 93890500 		mv	s3,a1
  74 0068 93040600 		mv	s1,a2
   9:src/tcb.cpp   **** }
  75              		.loc 1 9 5
   9:src/tcb.cpp   **** }
  76              		.loc 1 9 56 is_stmt 0
  77 006c 13050004 		li	a0,64
  78              	.LVL4:
  79 0070 97000000 		call	_Znwm@plt
GAS LISTING /tmp/cc7QZut1.s 			page 3


  79      E7800000 
  80              	.LVL5:
  81              	.LBB7:
  82              	.LBB8:
  83              		.file 2 "src/../h/tcb.hpp"
   1:src/../h/tcb.hpp **** #ifndef TCB_HPP
   2:src/../h/tcb.hpp **** #define TCB_HPP
   3:src/../h/tcb.hpp **** 
   4:src/../h/tcb.hpp **** #include "../lib/hw.h"
   5:src/../h/tcb.hpp **** #include "scheduler.hpp"
   6:src/../h/tcb.hpp **** #include "../test/printing.hpp"
   7:src/../h/tcb.hpp **** 
   8:src/../h/tcb.hpp **** // Thread Control Block
   9:src/../h/tcb.hpp **** class TCB
  10:src/../h/tcb.hpp **** {
  11:src/../h/tcb.hpp **** public:
  12:src/../h/tcb.hpp ****     enum State {CREATED, READY, RUNNING, FINISHED};
  13:src/../h/tcb.hpp **** 
  14:src/../h/tcb.hpp ****     ~TCB() { delete[] stack; }
  15:src/../h/tcb.hpp **** 
  16:src/../h/tcb.hpp ****     bool isFinished() const { return this->state == FINISHED; }
  17:src/../h/tcb.hpp **** 
  18:src/../h/tcb.hpp ****     uint64 getTimeSlice() const { return timeSlice; }
  19:src/../h/tcb.hpp **** 
  20:src/../h/tcb.hpp ****     int start();
  21:src/../h/tcb.hpp **** 
  22:src/../h/tcb.hpp ****     using Body = void (*)(void*);
  23:src/../h/tcb.hpp **** 
  24:src/../h/tcb.hpp ****     using Arg = void*;
  25:src/../h/tcb.hpp **** 
  26:src/../h/tcb.hpp ****     static TCB *createThread(Body body, Arg arg, uint64* stack);
  27:src/../h/tcb.hpp **** 
  28:src/../h/tcb.hpp ****     static TCB *running;
  29:src/../h/tcb.hpp **** 
  30:src/../h/tcb.hpp **** private:
  31:src/../h/tcb.hpp ****     TCB(Body body, Arg arg, uint64 *stack, uint64 timeSlice) :
  32:src/../h/tcb.hpp ****             body(body),
  33:src/../h/tcb.hpp ****             arg(arg),
  34:src/../h/tcb.hpp ****             stack(body != nullptr ? stack : nullptr),
  35:src/../h/tcb.hpp ****             context({(uint64) &threadWrapper,
  36:src/../h/tcb.hpp ****                      stack != nullptr ? (uint64) &stack[DEFAULT_STACK_SIZE] : 0
  37:src/../h/tcb.hpp ****                     }),
  38:src/../h/tcb.hpp ****             timeSlice(timeSlice)
  84              		.loc 2 38 32
  85 0078 23342501 		sd	s2,8(a0)
  86 007c 23383501 		sd	s3,16(a0)
  34:src/../h/tcb.hpp ****             context({(uint64) &threadWrapper,
  87              		.loc 2 34 35
  88 0080 63040906 		beqz	s2,.L6
  89 0084 93870400 		mv	a5,s1
  90              	.L4:
  91              		.loc 2 38 32
  92 0088 233CF500 		sd	a5,24(a0)
  93 008c 97070000 		lla	a5,_ZN3TCB13threadWrapperEv
  93      93870700 
  94 0094 2330F502 		sd	a5,32(a0)
  36:src/../h/tcb.hpp ****                     }),
GAS LISTING /tmp/cc7QZut1.s 			page 4


  95              		.loc 2 36 39
  96 0098 638C0404 		beqz	s1,.L7
  36:src/../h/tcb.hpp ****                     }),
  97              		.loc 2 36 50
  98 009c 37860000 		li	a2,32768
  99 00a0 B384C400 		add	s1,s1,a2
 100              	.LVL6:
 101              	.L5:
 102              		.loc 2 38 32
 103 00a4 23349502 		sd	s1,40(a0)
 104 00a8 93072000 		li	a5,2
 105 00ac 2338F502 		sd	a5,48(a0)
  39:src/../h/tcb.hpp ****     {
  40:src/../h/tcb.hpp ****         this->id = this->ID++;
 106              		.loc 2 40 9 is_stmt 1
 107              		.loc 2 40 28 is_stmt 0
 108 00b0 17070000 		lla	a4,.LANCHOR0
 108      13070700 
 109 00b8 83378700 		ld	a5,8(a4)
 110 00bc 93861700 		addi	a3,a5,1
 111 00c0 2334D700 		sd	a3,8(a4)
 112              		.loc 2 40 18
 113 00c4 2330F500 		sd	a5,0(a0)
  41:src/../h/tcb.hpp ****         this->state = CREATED;
 114              		.loc 2 41 9 is_stmt 1
 115              		.loc 2 41 21 is_stmt 0
 116 00c8 232C0502 		sw	zero,56(a0)
 117              	.LVL7:
 118              	.LBE8:
 119              	.LBE7:
  10:src/tcb.cpp   **** 
 120              		.loc 1 10 1
 121 00cc 83308102 		ld	ra,40(sp)
 122              		.cfi_remember_state
 123              		.cfi_restore 1
 124 00d0 03340102 		ld	s0,32(sp)
 125              		.cfi_restore 8
 126              		.cfi_def_cfa 2, 48
 127 00d4 83348101 		ld	s1,24(sp)
 128              		.cfi_restore 9
 129 00d8 03390101 		ld	s2,16(sp)
 130              		.cfi_restore 18
 131              	.LVL8:
 132 00dc 83398100 		ld	s3,8(sp)
 133              		.cfi_restore 19
 134              	.LVL9:
 135 00e0 13010103 		addi	sp,sp,48
 136              		.cfi_def_cfa_offset 0
 137 00e4 67800000 		jr	ra
 138              	.LVL10:
 139              	.L6:
 140              		.cfi_restore_state
 141              	.LBB10:
 142              	.LBB9:
  34:src/../h/tcb.hpp ****             context({(uint64) &threadWrapper,
 143              		.loc 2 34 35
 144 00e8 93070000 		li	a5,0
GAS LISTING /tmp/cc7QZut1.s 			page 5


 145 00ec 6FF0DFF9 		j	.L4
 146              	.L7:
  36:src/../h/tcb.hpp ****                     }),
 147              		.loc 2 36 39
 148 00f0 93040000 		li	s1,0
 149              	.LVL11:
 150 00f4 6FF01FFB 		j	.L5
 151              	.LBE9:
 152              	.LBE10:
 153              		.cfi_endproc
 154              	.LFE42:
 156              		.align	2
 157              		.globl	_ZN3TCB8dispatchEv
 159              	_ZN3TCB8dispatchEv:
 160              	.LFB43:
  12:src/tcb.cpp   ****     TCB::timeSliceCounter = 0;
 161              		.loc 1 12 22 is_stmt 1
 162              		.cfi_startproc
 163 00f8 130101FE 		addi	sp,sp,-32
 164              		.cfi_def_cfa_offset 32
 165 00fc 233C1100 		sd	ra,24(sp)
 166 0100 23388100 		sd	s0,16(sp)
 167 0104 23349100 		sd	s1,8(sp)
 168              		.cfi_offset 1, -8
 169              		.cfi_offset 8, -16
 170              		.cfi_offset 9, -24
 171 0108 13040102 		addi	s0,sp,32
 172              		.cfi_def_cfa 8, 0
  13:src/tcb.cpp   **** 
 173              		.loc 1 13 5
  13:src/tcb.cpp   **** 
 174              		.loc 1 13 27 is_stmt 0
 175 010c 97070000 		lla	a5,.LANCHOR0
 175      93870700 
 176 0114 23B80700 		sd	zero,16(a5)
  15:src/tcb.cpp   **** 
 177              		.loc 1 15 5 is_stmt 1
  15:src/tcb.cpp   **** 
 178              		.loc 1 15 10 is_stmt 0
 179 0118 83B40700 		ld	s1,0(a5)
 180              	.LVL12:
  17:src/tcb.cpp   ****         old->state = READY;
 181              		.loc 1 17 5 is_stmt 1
 182              	.LBB11:
 183              	.LBB12:
  16:src/../h/tcb.hpp **** 
 184              		.loc 2 16 31
  16:src/../h/tcb.hpp **** 
 185              		.loc 2 16 44 is_stmt 0
 186 011c 03A78403 		lw	a4,56(s1)
 187              	.LVL13:
 188              	.LBE12:
 189              	.LBE11:
  17:src/tcb.cpp   ****         old->state = READY;
 190              		.loc 1 17 5
 191 0120 93073000 		li	a5,3
 192 0124 6310F704 		bne	a4,a5,.L12
GAS LISTING /tmp/cc7QZut1.s 			page 6


 193              	.L10:
  22:src/tcb.cpp   ****     running->state = RUNNING;
 194              		.loc 1 22 5 is_stmt 1
  22:src/tcb.cpp   ****     running->state = RUNNING;
 195              		.loc 1 22 29 is_stmt 0
 196 0128 97000000 		call	_ZN9Scheduler3getEv@plt
 196      E7800000 
 197              	.LVL14:
  22:src/tcb.cpp   ****     running->state = RUNNING;
 198              		.loc 1 22 13
 199 0130 97070000 		sd	a0,.LANCHOR0,a5
 199      23B0A700 
  23:src/tcb.cpp   **** 
 200              		.loc 1 23 5 is_stmt 1
  23:src/tcb.cpp   **** 
 201              		.loc 1 23 20 is_stmt 0
 202 0138 93072000 		li	a5,2
 203 013c 232CF502 		sw	a5,56(a0)
  25:src/tcb.cpp   **** }
 204              		.loc 1 25 5 is_stmt 1
  25:src/tcb.cpp   **** }
 205              		.loc 1 25 23 is_stmt 0
 206 0140 93050502 		addi	a1,a0,32
 207 0144 13850402 		addi	a0,s1,32
 208 0148 97000000 		call	_ZN3TCB13contextSwitchEPNS_7ContextES1_@plt
 208      E7800000 
 209              	.LVL15:
  26:src/tcb.cpp   **** 
 210              		.loc 1 26 1
 211 0150 83308101 		ld	ra,24(sp)
 212              		.cfi_remember_state
 213              		.cfi_restore 1
 214 0154 03340101 		ld	s0,16(sp)
 215              		.cfi_restore 8
 216              		.cfi_def_cfa 2, 32
 217 0158 83348100 		ld	s1,8(sp)
 218              		.cfi_restore 9
 219              	.LVL16:
 220 015c 13010102 		addi	sp,sp,32
 221              		.cfi_def_cfa_offset 0
 222 0160 67800000 		jr	ra
 223              	.LVL17:
 224              	.L12:
 225              		.cfi_restore_state
  18:src/tcb.cpp   ****         Scheduler::put(old);
 226              		.loc 1 18 9 is_stmt 1
  18:src/tcb.cpp   ****         Scheduler::put(old);
 227              		.loc 1 18 20 is_stmt 0
 228 0164 93071000 		li	a5,1
 229 0168 23ACF402 		sw	a5,56(s1)
  19:src/tcb.cpp   ****     }
 230              		.loc 1 19 9 is_stmt 1
  19:src/tcb.cpp   ****     }
 231              		.loc 1 19 23 is_stmt 0
 232 016c 13850400 		mv	a0,s1
 233 0170 97000000 		call	_ZN9Scheduler3putEP3TCB@plt
 233      E7800000 
GAS LISTING /tmp/cc7QZut1.s 			page 7


 234              	.LVL18:
 235 0178 6FF01FFB 		j	.L10
 236              		.cfi_endproc
 237              	.LFE43:
 239              		.align	2
 240              		.globl	_ZN3TCB4exitEv
 242              	_ZN3TCB4exitEv:
 243              	.LFB45:
  33:src/tcb.cpp   **** 
  34:src/tcb.cpp   **** int TCB::exit() {
 244              		.loc 1 34 17 is_stmt 1
 245              		.cfi_startproc
  35:src/tcb.cpp   ****     if(running->state == RUNNING){
 246              		.loc 1 35 5
 247              		.loc 1 35 17 is_stmt 0
 248 017c 97070000 		ld	a5,.LANCHOR0
 248      83B70700 
 249 0184 83A68703 		lw	a3,56(a5)
 250              		.loc 1 35 5
 251 0188 13072000 		li	a4,2
 252 018c 639CE602 		bne	a3,a4,.L15
  34:src/tcb.cpp   ****     if(running->state == RUNNING){
 253              		.loc 1 34 17
 254 0190 130101FF 		addi	sp,sp,-16
 255              		.cfi_def_cfa_offset 16
 256 0194 23341100 		sd	ra,8(sp)
 257 0198 23308100 		sd	s0,0(sp)
 258              		.cfi_offset 1, -8
 259              		.cfi_offset 8, -16
 260 019c 13040101 		addi	s0,sp,16
 261              		.cfi_def_cfa 8, 0
  36:src/tcb.cpp   ****         running->state = FINISHED;
 262              		.loc 1 36 9 is_stmt 1
 263              		.loc 1 36 24 is_stmt 0
 264 01a0 13073000 		li	a4,3
 265 01a4 23ACE702 		sw	a4,56(a5)
  37:src/tcb.cpp   ****         dispatch();
 266              		.loc 1 37 9 is_stmt 1
 267              		.loc 1 37 17 is_stmt 0
 268 01a8 97000000 		call	_ZN3TCB8dispatchEv
 268      E7800000 
 269              	.LVL19:
  38:src/tcb.cpp   ****         return 0;
 270              		.loc 1 38 9 is_stmt 1
 271              		.loc 1 38 16 is_stmt 0
 272 01b0 13050000 		li	a0,0
  39:src/tcb.cpp   ****     }
  40:src/tcb.cpp   ****     return -1;
  41:src/tcb.cpp   **** }
 273              		.loc 1 41 1
 274 01b4 83308100 		ld	ra,8(sp)
 275              		.cfi_restore 1
 276 01b8 03340100 		ld	s0,0(sp)
 277              		.cfi_restore 8
 278              		.cfi_def_cfa 2, 16
 279 01bc 13010101 		addi	sp,sp,16
 280              		.cfi_def_cfa_offset 0
GAS LISTING /tmp/cc7QZut1.s 			page 8


 281 01c0 67800000 		jr	ra
 282              	.L15:
  40:src/tcb.cpp   **** }
 283              		.loc 1 40 13
 284 01c4 1305F0FF 		li	a0,-1
 285              		.loc 1 41 1
 286 01c8 67800000 		ret
 287              		.cfi_endproc
 288              	.LFE45:
 290              		.align	2
 291              		.globl	_ZN3TCB5startEv
 293              	_ZN3TCB5startEv:
 294              	.LFB46:
  42:src/tcb.cpp   **** 
  43:src/tcb.cpp   **** int TCB::start() {
 295              		.loc 1 43 18 is_stmt 1
 296              		.cfi_startproc
 297              	.LVL20:
  44:src/tcb.cpp   ****     if(this->state != CREATED) return -1;
 298              		.loc 1 44 5
 299              		.loc 1 44 14 is_stmt 0
 300 01cc 83278503 		lw	a5,56(a0)
 301              		.loc 1 44 5
 302 01d0 63940704 		bnez	a5,.L22
  45:src/tcb.cpp   ****     this->state = READY;
 303              		.loc 1 45 5 is_stmt 1
 304              		.loc 1 45 17 is_stmt 0
 305 01d4 93071000 		li	a5,1
 306 01d8 232CF502 		sw	a5,56(a0)
  46:src/tcb.cpp   ****     if (this->id != 0) { Scheduler::put(this); }
 307              		.loc 1 46 5 is_stmt 1
 308              		.loc 1 46 15 is_stmt 0
 309 01dc 83370500 		ld	a5,0(a0)
 310              		.loc 1 46 5
 311 01e0 63960700 		bnez	a5,.L28
  47:src/tcb.cpp   ****     return 0;
 312              		.loc 1 47 12
 313 01e4 13050000 		li	a0,0
 314              	.LVL21:
  48:src/tcb.cpp   **** }
 315              		.loc 1 48 1
 316 01e8 67800000 		ret
 317              	.LVL22:
 318              	.L28:
  43:src/tcb.cpp   ****     if(this->state != CREATED) return -1;
 319              		.loc 1 43 18 discriminator 1
 320 01ec 130101FF 		addi	sp,sp,-16
 321              		.cfi_def_cfa_offset 16
 322 01f0 23341100 		sd	ra,8(sp)
 323 01f4 23308100 		sd	s0,0(sp)
 324              		.cfi_offset 1, -8
 325              		.cfi_offset 8, -16
 326 01f8 13040101 		addi	s0,sp,16
 327              		.cfi_def_cfa 8, 0
  46:src/tcb.cpp   ****     return 0;
 328              		.loc 1 46 26 is_stmt 1 discriminator 1
  46:src/tcb.cpp   ****     return 0;
GAS LISTING /tmp/cc7QZut1.s 			page 9


 329              		.loc 1 46 40 is_stmt 0 discriminator 1
 330 01fc 97000000 		call	_ZN9Scheduler3putEP3TCB@plt
 330      E7800000 
 331              	.LVL23:
  47:src/tcb.cpp   **** }
 332              		.loc 1 47 12 discriminator 1
 333 0204 13050000 		li	a0,0
 334              		.loc 1 48 1 discriminator 1
 335 0208 83308100 		ld	ra,8(sp)
 336              		.cfi_restore 1
 337 020c 03340100 		ld	s0,0(sp)
 338              		.cfi_restore 8
 339              		.cfi_def_cfa 2, 16
 340 0210 13010101 		addi	sp,sp,16
 341              		.cfi_def_cfa_offset 0
 342 0214 67800000 		jr	ra
 343              	.LVL24:
 344              	.L22:
  44:src/tcb.cpp   ****     this->state = READY;
 345              		.loc 1 44 40
 346 0218 1305F0FF 		li	a0,-1
 347              	.LVL25:
 348 021c 67800000 		ret
 349              		.cfi_endproc
 350              	.LFE46:
 352              		.globl	_ZN3TCB2IDE
 353              		.globl	_ZN3TCB16timeSliceCounterE
 354              		.globl	_ZN3TCB7runningE
 355              		.bss
 356              		.align	3
 357              		.set	.LANCHOR0,. + 0
 360              	_ZN3TCB7runningE:
 361 0000 00000000 		.zero	8
 361      00000000 
 364              	_ZN3TCB2IDE:
 365 0008 00000000 		.zero	8
 365      00000000 
 368              	_ZN3TCB16timeSliceCounterE:
 369 0010 00000000 		.zero	8
 369      00000000 
 370              		.text
 371              	.Letext0:
 372              		.file 3 "src/../h/../lib/hw.h"
 373              		.file 4 "src/../h/scheduler.hpp"
 374              		.file 5 "src/../h/riscv.hpp"
 375              		.file 6 "src/../h/../test/../h/syscall_c.hpp"
GAS LISTING /tmp/cc7QZut1.s 			page 10

