GAS LISTING /tmp/ccLVtB0K.s 			page 1


   1              		.file	"Thread.cpp"
   2              		.option pic
   3              		.option norelax
   4              		.text
   5              	.Ltext0:
   6              		.section	.text._ZN6Thread3runEv,"axG",@progbits,_ZN6Thread3runEv,comdat
   7              		.align	2
   8              		.weak	_ZN6Thread3runEv
  10              	_ZN6Thread3runEv:
  11              	.LFB20:
  12              		.file 1 "src/../h/syscall_cpp.hpp"
   1:src/../h/syscall_cpp.hpp **** #ifndef SYSCALL_CPP_HPP
   2:src/../h/syscall_cpp.hpp **** #define SYSCALL_CPP_HPP
   3:src/../h/syscall_cpp.hpp **** 
   4:src/../h/syscall_cpp.hpp **** #include "syscall_c.hpp"
   5:src/../h/syscall_cpp.hpp **** 
   6:src/../h/syscall_cpp.hpp **** void* operator new (size_t);
   7:src/../h/syscall_cpp.hpp **** void operator delete (void*);
   8:src/../h/syscall_cpp.hpp **** 
   9:src/../h/syscall_cpp.hpp **** class Thread {
  10:src/../h/syscall_cpp.hpp **** public:
  11:src/../h/syscall_cpp.hpp ****     Thread (void (*body)(void*), void* arg);
  12:src/../h/syscall_cpp.hpp ****     virtual ~Thread ();
  13:src/../h/syscall_cpp.hpp ****     int start ();
  14:src/../h/syscall_cpp.hpp ****     static void dispatch ();
  15:src/../h/syscall_cpp.hpp ****     static int sleep (time_t);
  16:src/../h/syscall_cpp.hpp **** protected:
  17:src/../h/syscall_cpp.hpp ****     Thread ();
  18:src/../h/syscall_cpp.hpp ****     virtual void run () {}
  13              		.loc 1 18 18
  14              		.cfi_startproc
  15              	.LVL0:
  16 0000 130101FF 		addi	sp,sp,-16
  17              		.cfi_def_cfa_offset 16
  18 0004 23348100 		sd	s0,8(sp)
  19              		.cfi_offset 8, -8
  20 0008 13040101 		addi	s0,sp,16
  21              		.cfi_def_cfa 8, 0
  22              		.loc 1 18 26 is_stmt 0
  23 000c 03348100 		ld	s0,8(sp)
  24              		.cfi_restore 8
  25              		.cfi_def_cfa 2, 16
  26 0010 13010101 		addi	sp,sp,16
  27              		.cfi_def_cfa_offset 0
  28 0014 67800000 		jr	ra
  29              		.cfi_endproc
  30              	.LFE20:
  32              		.text
  33              		.align	2
  34              		.globl	_ZN6Thread7wrapperEPv
  36              	_ZN6Thread7wrapperEPv:
  37              	.LFB21:
  38              		.file 2 "src/Thread.cpp"
   1:src/Thread.cpp **** #include "../h/syscall_cpp.hpp"
   2:src/Thread.cpp **** 
   3:src/Thread.cpp **** void Thread::wrapper(void* thread) {
  39              		.loc 2 3 36 is_stmt 1
GAS LISTING /tmp/ccLVtB0K.s 			page 2


  40              		.cfi_startproc
  41              	.LVL1:
   4:src/Thread.cpp ****     if(thread) {
  42              		.loc 2 4 5
  43 0000 63080502 		beqz	a0,.L6
   3:src/Thread.cpp ****     if(thread) {
  44              		.loc 2 3 36 is_stmt 0
  45 0004 130101FF 		addi	sp,sp,-16
  46              		.cfi_def_cfa_offset 16
  47 0008 23341100 		sd	ra,8(sp)
  48 000c 23308100 		sd	s0,0(sp)
  49              		.cfi_offset 1, -8
  50              		.cfi_offset 8, -16
  51 0010 13040101 		addi	s0,sp,16
  52              		.cfi_def_cfa 8, 0
   5:src/Thread.cpp ****         ((Thread*)thread)->run();
  53              		.loc 2 5 9 is_stmt 1
  54              		.loc 2 5 32 is_stmt 0
  55 0014 83370500 		ld	a5,0(a0)
  56 0018 83B70701 		ld	a5,16(a5)
  57              		.loc 2 5 31
  58 001c E7800700 		jalr	a5
  59              	.LVL2:
   6:src/Thread.cpp ****     }
   7:src/Thread.cpp **** }
  60              		.loc 2 7 1
  61 0020 83308100 		ld	ra,8(sp)
  62              		.cfi_restore 1
  63 0024 03340100 		ld	s0,0(sp)
  64              		.cfi_restore 8
  65              		.cfi_def_cfa 2, 16
  66 0028 13010101 		addi	sp,sp,16
  67              		.cfi_def_cfa_offset 0
  68 002c 67800000 		jr	ra
  69              	.LVL3:
  70              	.L6:
  71 0030 67800000 		ret
  72              		.cfi_endproc
  73              	.LFE21:
  75              		.align	2
  76              		.globl	_ZN6ThreadD2Ev
  78              	_ZN6ThreadD2Ev:
  79              	.LFB31:
   8:src/Thread.cpp **** 
   9:src/Thread.cpp **** Thread::Thread(void (*body)(void *), void *arg) {
  10:src/Thread.cpp ****     thread_create(&this->myHandle, body, arg);
  11:src/Thread.cpp **** }
  12:src/Thread.cpp **** 
  13:src/Thread.cpp **** Thread::Thread() {
  14:src/Thread.cpp ****     thread_initialize(&this->myHandle, Thread::wrapper, this);
  15:src/Thread.cpp **** }
  16:src/Thread.cpp **** 
  17:src/Thread.cpp **** int Thread::start() {
  18:src/Thread.cpp ****     return thread_start(this->myHandle);
  19:src/Thread.cpp **** }
  20:src/Thread.cpp **** 
  21:src/Thread.cpp **** void Thread::dispatch() {
GAS LISTING /tmp/ccLVtB0K.s 			page 3


  22:src/Thread.cpp ****     thread_dispatch();
  23:src/Thread.cpp **** }
  24:src/Thread.cpp **** 
  25:src/Thread.cpp **** Thread::~Thread() {
  80              		.loc 2 25 1 is_stmt 1
  81              		.cfi_startproc
  82              		.cfi_personality 0x9b,DW.ref.__gxx_personality_v0
  83              		.cfi_lsda 0x1b,.LLSDA31
  84              	.LVL4:
  85 0034 130101FE 		addi	sp,sp,-32
  86              		.cfi_def_cfa_offset 32
  87 0038 233C1100 		sd	ra,24(sp)
  88 003c 23388100 		sd	s0,16(sp)
  89 0040 23349100 		sd	s1,8(sp)
  90              		.cfi_offset 1, -8
  91              		.cfi_offset 8, -16
  92              		.cfi_offset 9, -24
  93 0044 13040102 		addi	s0,sp,32
  94              		.cfi_def_cfa 8, 0
  95              	.LBB8:
  96              		.loc 2 25 17 is_stmt 0
  97 0048 97070000 		lla	a5,_ZTV6Thread+16
  97      93870700 
  98 0050 2330F500 		sd	a5,0(a0)
  26:src/Thread.cpp ****     delete myHandle;
  99              		.loc 2 26 5 is_stmt 1
 100              		.loc 2 26 12 is_stmt 0
 101 0054 83348500 		ld	s1,8(a0)
 102              		.loc 2 26 20
 103 0058 63800402 		beqz	s1,.L9
 104              	.LVL5:
 105              	.LBB9:
 106              	.LBB10:
 107              		.file 3 "src/../h/tcb.hpp"
   1:src/../h/tcb.hpp **** #ifndef TCB_HPP
   2:src/../h/tcb.hpp **** #define TCB_HPP
   3:src/../h/tcb.hpp **** 
   4:src/../h/tcb.hpp **** #include "../lib/hw.h"
   5:src/../h/tcb.hpp **** #include "scheduler.hpp"
   6:src/../h/tcb.hpp **** #include "../test/printing.hpp"
   7:src/../h/tcb.hpp **** 
   8:src/../h/tcb.hpp **** // Thread Control Block
   9:src/../h/tcb.hpp **** class TCB
  10:src/../h/tcb.hpp **** {
  11:src/../h/tcb.hpp **** public:
  12:src/../h/tcb.hpp ****     enum State {CREATED, READY, RUNNING, BLOCKED, FINISHED};
  13:src/../h/tcb.hpp **** 
  14:src/../h/tcb.hpp ****     ~TCB() { delete[] stack; }
 108              		.loc 3 14 14 is_stmt 1
 109              		.loc 3 14 23 is_stmt 0
 110 005c 03B58401 		ld	a0,24(s1)
 111              	.LVL6:
 112              		.loc 3 14 28
 113 0060 63060500 		beqz	a0,.L11
 114              		.loc 3 14 23
 115 0064 97000000 		call	_ZdaPv@plt
 115      E7800000 
GAS LISTING /tmp/ccLVtB0K.s 			page 4


 116              	.LVL7:
 117              	.L11:
 118              	.LBE10:
 119              	.LBE9:
 120              	.LBB11:
 121              	.LBB12:
  15:src/../h/tcb.hpp **** 
  16:src/../h/tcb.hpp ****     bool isFinished() const { return this->state == FINISHED; }
  17:src/../h/tcb.hpp **** 
  18:src/../h/tcb.hpp ****     uint64 getTimeSlice() const { return timeSlice; }
  19:src/../h/tcb.hpp **** 
  20:src/../h/tcb.hpp ****     int start();
  21:src/../h/tcb.hpp **** 
  22:src/../h/tcb.hpp ****     using Body = void (*)(void*);
  23:src/../h/tcb.hpp **** 
  24:src/../h/tcb.hpp ****     using Arg = void*;
  25:src/../h/tcb.hpp **** 
  26:src/../h/tcb.hpp ****     static TCB* createThread(Body body, Arg arg, uint64* stack);
  27:src/../h/tcb.hpp **** 
  28:src/../h/tcb.hpp ****     static TCB* initializeThread(Body body, Arg arg, uint64* stack);
  29:src/../h/tcb.hpp **** 
  30:src/../h/tcb.hpp ****     static TCB *running;
  31:src/../h/tcb.hpp **** 
  32:src/../h/tcb.hpp ****     void *operator new(size_t size) { return __mem_alloc(size); }
  33:src/../h/tcb.hpp ****     void operator delete(void *ptr) { __mem_free(ptr); }
 122              		.loc 3 33 39 is_stmt 1
 123              		.loc 3 33 49 is_stmt 0
 124 006c 13850400 		mv	a0,s1
 125 0070 97000000 		call	__mem_free@plt
 125      E7800000 
 126              	.LVL8:
 127              	.L9:
 128              	.LBE12:
 129              	.LBE11:
 130              	.LBE8:
  27:src/Thread.cpp **** }...
 131              		.loc 2 27 1
 132 0078 83308101 		ld	ra,24(sp)
 133              		.cfi_restore 1
 134 007c 03340101 		ld	s0,16(sp)
 135              		.cfi_restore 8
 136              		.cfi_def_cfa 2, 32
 137 0080 83348100 		ld	s1,8(sp)
 138              		.cfi_restore 9
 139 0084 13010102 		addi	sp,sp,32
 140              		.cfi_def_cfa_offset 0
 141 0088 67800000 		jr	ra
 142              		.cfi_endproc
 143              	.LFE31:
 144              		.globl	__gxx_personality_v0
 145              		.section	.gcc_except_table,"a",@progbits
 146              	.LLSDA31:
 147 0000 FF       		.byte	0xff
 148 0001 FF       		.byte	0xff
 149 0002 03       		.byte	0x3
 150 0003 00       		.byte	0
 151              		.text
GAS LISTING /tmp/ccLVtB0K.s 			page 5


 153              		.globl	_ZN6ThreadD1Ev
 154              		.set	_ZN6ThreadD1Ev,_ZN6ThreadD2Ev
 155              		.align	2
 156              		.globl	_ZN6ThreadD0Ev
 158              	_ZN6ThreadD0Ev:
 159              	.LFB33:
  25:src/Thread.cpp **** Thread::~Thread() {
 160              		.loc 2 25 1 is_stmt 1
 161              		.cfi_startproc
 162              	.LVL9:
 163 008c 130101FE 		addi	sp,sp,-32
 164              		.cfi_def_cfa_offset 32
 165 0090 233C1100 		sd	ra,24(sp)
 166 0094 23388100 		sd	s0,16(sp)
 167 0098 23349100 		sd	s1,8(sp)
 168              		.cfi_offset 1, -8
 169              		.cfi_offset 8, -16
 170              		.cfi_offset 9, -24
 171 009c 13040102 		addi	s0,sp,32
 172              		.cfi_def_cfa 8, 0
 173 00a0 93040500 		mv	s1,a0
 174              		.loc 2 27 1 is_stmt 0
 175 00a4 97000000 		call	_ZN6ThreadD1Ev
 175      E7800000 
 176              	.LVL10:
 177 00ac 13850400 		mv	a0,s1
 178 00b0 97000000 		call	_ZdlPv@plt
 178      E7800000 
 179              	.LVL11:
 180 00b8 83308101 		ld	ra,24(sp)
 181              		.cfi_restore 1
 182 00bc 03340101 		ld	s0,16(sp)
 183              		.cfi_restore 8
 184              		.cfi_def_cfa 2, 32
 185 00c0 83348100 		ld	s1,8(sp)
 186              		.cfi_restore 9
 187              	.LVL12:
 188 00c4 13010102 		addi	sp,sp,32
 189              		.cfi_def_cfa_offset 0
 190 00c8 67800000 		jr	ra
 191              		.cfi_endproc
 192              	.LFE33:
 194              		.align	2
 195              		.globl	_ZN6ThreadC2EPFvPvES0_
 197              	_ZN6ThreadC2EPFvPvES0_:
 198              	.LFB23:
   9:src/Thread.cpp **** Thread::Thread(void (*body)(void *), void *arg) {
 199              		.loc 2 9 1 is_stmt 1
 200              		.cfi_startproc
 201              	.LVL13:
 202 00cc 130101FF 		addi	sp,sp,-16
 203              		.cfi_def_cfa_offset 16
 204 00d0 23341100 		sd	ra,8(sp)
 205 00d4 23308100 		sd	s0,0(sp)
 206              		.cfi_offset 1, -8
 207              		.cfi_offset 8, -16
 208 00d8 13040101 		addi	s0,sp,16
GAS LISTING /tmp/ccLVtB0K.s 			page 6


 209              		.cfi_def_cfa 8, 0
 210              	.LBB13:
   9:src/Thread.cpp **** Thread::Thread(void (*body)(void *), void *arg) {
 211              		.loc 2 9 47 is_stmt 0
 212 00dc 97070000 		lla	a5,_ZTV6Thread+16
 212      93870700 
 213 00e4 2330F500 		sd	a5,0(a0)
  10:src/Thread.cpp ****     thread_create(&this->myHandle, body, arg);
 214              		.loc 2 10 5 is_stmt 1
  10:src/Thread.cpp ****     thread_create(&this->myHandle, body, arg);
 215              		.loc 2 10 18 is_stmt 0
 216 00e8 13058500 		addi	a0,a0,8
 217              	.LVL14:
 218 00ec 97000000 		call	_Z13thread_createPP3TCBPFvPvES2_@plt
 218      E7800000 
 219              	.LVL15:
 220              	.LBE13:
  11:src/Thread.cpp **** }
 221              		.loc 2 11 1
 222 00f4 83308100 		ld	ra,8(sp)
 223              		.cfi_restore 1
 224 00f8 03340100 		ld	s0,0(sp)
 225              		.cfi_restore 8
 226              		.cfi_def_cfa 2, 16
 227 00fc 13010101 		addi	sp,sp,16
 228              		.cfi_def_cfa_offset 0
 229 0100 67800000 		jr	ra
 230              		.cfi_endproc
 231              	.LFE23:
 233              		.globl	_ZN6ThreadC1EPFvPvES0_
 234              		.set	_ZN6ThreadC1EPFvPvES0_,_ZN6ThreadC2EPFvPvES0_
 235              		.align	2
 236              		.globl	_ZN6ThreadC2Ev
 238              	_ZN6ThreadC2Ev:
 239              	.LFB26:
  13:src/Thread.cpp **** Thread::Thread() {
 240              		.loc 2 13 1 is_stmt 1
 241              		.cfi_startproc
 242              	.LVL16:
 243 0104 130101FF 		addi	sp,sp,-16
 244              		.cfi_def_cfa_offset 16
 245 0108 23341100 		sd	ra,8(sp)
 246 010c 23308100 		sd	s0,0(sp)
 247              		.cfi_offset 1, -8
 248              		.cfi_offset 8, -16
 249 0110 13040101 		addi	s0,sp,16
 250              		.cfi_def_cfa 8, 0
 251              	.LBB14:
  13:src/Thread.cpp **** Thread::Thread() {
 252              		.loc 2 13 16 is_stmt 0
 253 0114 97070000 		lla	a5,_ZTV6Thread+16
 253      93870700 
 254 011c 2330F500 		sd	a5,0(a0)
  14:src/Thread.cpp ****     thread_initialize(&this->myHandle, Thread::wrapper, this);
 255              		.loc 2 14 5 is_stmt 1
  14:src/Thread.cpp ****     thread_initialize(&this->myHandle, Thread::wrapper, this);
 256              		.loc 2 14 22 is_stmt 0
GAS LISTING /tmp/ccLVtB0K.s 			page 7


 257 0120 13060500 		mv	a2,a0
 258 0124 97050000 		lla	a1,_ZN6Thread7wrapperEPv
 258      93850500 
 259 012c 13058500 		addi	a0,a0,8
 260              	.LVL17:
 261 0130 97000000 		call	_Z17thread_initializePP3TCBPFvPvES2_@plt
 261      E7800000 
 262              	.LVL18:
 263              	.LBE14:
  15:src/Thread.cpp **** }
 264              		.loc 2 15 1
 265 0138 83308100 		ld	ra,8(sp)
 266              		.cfi_restore 1
 267 013c 03340100 		ld	s0,0(sp)
 268              		.cfi_restore 8
 269              		.cfi_def_cfa 2, 16
 270 0140 13010101 		addi	sp,sp,16
 271              		.cfi_def_cfa_offset 0
 272 0144 67800000 		jr	ra
 273              		.cfi_endproc
 274              	.LFE26:
 276              		.globl	_ZN6ThreadC1Ev
 277              		.set	_ZN6ThreadC1Ev,_ZN6ThreadC2Ev
 278              		.align	2
 279              		.globl	_ZN6Thread5startEv
 281              	_ZN6Thread5startEv:
 282              	.LFB28:
  17:src/Thread.cpp **** int Thread::start() {
 283              		.loc 2 17 21 is_stmt 1
 284              		.cfi_startproc
 285              	.LVL19:
 286 0148 130101FF 		addi	sp,sp,-16
 287              		.cfi_def_cfa_offset 16
 288 014c 23341100 		sd	ra,8(sp)
 289 0150 23308100 		sd	s0,0(sp)
 290              		.cfi_offset 1, -8
 291              		.cfi_offset 8, -16
 292 0154 13040101 		addi	s0,sp,16
 293              		.cfi_def_cfa 8, 0
  18:src/Thread.cpp ****     return thread_start(this->myHandle);
 294              		.loc 2 18 5
  18:src/Thread.cpp ****     return thread_start(this->myHandle);
 295              		.loc 2 18 24 is_stmt 0
 296 0158 03358500 		ld	a0,8(a0)
 297              	.LVL20:
 298 015c 97000000 		call	_Z12thread_startP3TCB@plt
 298      E7800000 
 299              	.LVL21:
  19:src/Thread.cpp **** }
 300              		.loc 2 19 1
 301 0164 83308100 		ld	ra,8(sp)
 302              		.cfi_restore 1
 303 0168 03340100 		ld	s0,0(sp)
 304              		.cfi_restore 8
 305              		.cfi_def_cfa 2, 16
 306 016c 13010101 		addi	sp,sp,16
 307              		.cfi_def_cfa_offset 0
GAS LISTING /tmp/ccLVtB0K.s 			page 8


 308 0170 67800000 		jr	ra
 309              		.cfi_endproc
 310              	.LFE28:
 312              		.align	2
 313              		.globl	_ZN6Thread8dispatchEv
 315              	_ZN6Thread8dispatchEv:
 316              	.LFB29:
  21:src/Thread.cpp **** void Thread::dispatch() {
 317              		.loc 2 21 25 is_stmt 1
 318              		.cfi_startproc
 319 0174 130101FF 		addi	sp,sp,-16
 320              		.cfi_def_cfa_offset 16
 321 0178 23341100 		sd	ra,8(sp)
 322 017c 23308100 		sd	s0,0(sp)
 323              		.cfi_offset 1, -8
 324              		.cfi_offset 8, -16
 325 0180 13040101 		addi	s0,sp,16
 326              		.cfi_def_cfa 8, 0
  22:src/Thread.cpp ****     thread_dispatch();
 327              		.loc 2 22 5
  22:src/Thread.cpp ****     thread_dispatch();
 328              		.loc 2 22 20 is_stmt 0
 329 0184 97000000 		call	_Z15thread_dispatchv@plt
 329      E7800000 
 330              	.LVL22:
  23:src/Thread.cpp **** }
 331              		.loc 2 23 1
 332 018c 83308100 		ld	ra,8(sp)
 333              		.cfi_restore 1
 334 0190 03340100 		ld	s0,0(sp)
 335              		.cfi_restore 8
 336              		.cfi_def_cfa 2, 16
 337 0194 13010101 		addi	sp,sp,16
 338              		.cfi_def_cfa_offset 0
 339 0198 67800000 		jr	ra
 340              		.cfi_endproc
 341              	.LFE29:
 343              		.weak	_ZTV6Thread
 344              		.section	.data.rel.ro.local._ZTV6Thread,"awG",@progbits,_ZTV6Thread,comdat
 345              		.align	3
 348              	_ZTV6Thread:
 349 0000 00000000 		.dword	0
 349      00000000 
 350 0008 00000000 		.dword	0
 350      00000000 
 351 0010 00000000 		.dword	_ZN6ThreadD1Ev
 351      00000000 
 352 0018 00000000 		.dword	_ZN6ThreadD0Ev
 352      00000000 
 353 0020 00000000 		.dword	_ZN6Thread3runEv
 353      00000000 
 354              		.text
 355              	.Letext0:
 356              		.file 4 "src/../h/../lib/hw.h"
 357              		.file 5 "src/../h/syscall_c.hpp"
 358              		.file 6 "src/../h/../lib/mem.h"
 2715              		.align	3
GAS LISTING /tmp/ccLVtB0K.s 			page 9


 2718              	DW.ref.__gxx_personality_v0:
 2719 0000 00000000 		.dword	__gxx_personality_v0
 2719      00000000 
 2720              		.ident	"GCC: (Ubuntu 9.4.0-1ubuntu1~20.04) 9.4.0"
 2721              		.section	.note.GNU-stack,"",@progbits
GAS LISTING /tmp/ccLVtB0K.s 			page 10

