GAS LISTING /tmp/ccHwDEnm.s 			page 1


   1              		.file	"userMain.cpp"
   2              		.option pic
   3              		.option norelax
   4              		.text
   5              	.Ltext0:
   6              		.section	.text._ZN8ConsumerD2Ev,"axG",@progbits,_ZN8ConsumerD5Ev,comdat
   7              		.align	2
   8              		.weak	_ZN8ConsumerD2Ev
  10              	_ZN8ConsumerD2Ev:
  11              	.LFB39:
  12              		.file 1 "src/../test/ConsumerProducer_CPP_Sync_API_test.hpp"
   1:src/../test/ConsumerProducer_CPP_Sync_API_test.hpp **** //
   2:src/../test/ConsumerProducer_CPP_Sync_API_test.hpp **** // Created by os on 4/17/22.
   3:src/../test/ConsumerProducer_CPP_Sync_API_test.hpp **** //
   4:src/../test/ConsumerProducer_CPP_Sync_API_test.hpp **** 
   5:src/../test/ConsumerProducer_CPP_Sync_API_test.hpp **** #ifndef XV6_CONSUMERPRODUCER_CPP_Sync_API_TEST_H
   6:src/../test/ConsumerProducer_CPP_Sync_API_test.hpp **** #define XV6_CONSUMERPRODUCER_CPP_Sync_API_TEST_H
   7:src/../test/ConsumerProducer_CPP_Sync_API_test.hpp **** 
   8:src/../test/ConsumerProducer_CPP_Sync_API_test.hpp **** #include "../h/syscall_cpp.hpp"
   9:src/../test/ConsumerProducer_CPP_Sync_API_test.hpp **** 
  10:src/../test/ConsumerProducer_CPP_Sync_API_test.hpp **** #include "buffer_CPP_API.hpp"
  11:src/../test/ConsumerProducer_CPP_Sync_API_test.hpp **** 
  12:src/../test/ConsumerProducer_CPP_Sync_API_test.hpp **** Semaphore* waitForAll;
  13:src/../test/ConsumerProducer_CPP_Sync_API_test.hpp **** 
  14:src/../test/ConsumerProducer_CPP_Sync_API_test.hpp **** struct thread_data {
  15:src/../test/ConsumerProducer_CPP_Sync_API_test.hpp ****     int id;
  16:src/../test/ConsumerProducer_CPP_Sync_API_test.hpp ****     BufferCPP *buffer;
  17:src/../test/ConsumerProducer_CPP_Sync_API_test.hpp ****     Semaphore* wait;
  18:src/../test/ConsumerProducer_CPP_Sync_API_test.hpp **** };
  19:src/../test/ConsumerProducer_CPP_Sync_API_test.hpp **** 
  20:src/../test/ConsumerProducer_CPP_Sync_API_test.hpp **** volatile int threadEnd = 0;
  21:src/../test/ConsumerProducer_CPP_Sync_API_test.hpp **** 
  22:src/../test/ConsumerProducer_CPP_Sync_API_test.hpp **** class ProducerKeyboard:public Thread {
  23:src/../test/ConsumerProducer_CPP_Sync_API_test.hpp ****     thread_data* td;
  24:src/../test/ConsumerProducer_CPP_Sync_API_test.hpp ****     void producerKeyboard(void *arg);
  25:src/../test/ConsumerProducer_CPP_Sync_API_test.hpp **** public:
  26:src/../test/ConsumerProducer_CPP_Sync_API_test.hpp ****     ProducerKeyboard(thread_data* _td):Thread(), td(_td) {}
  27:src/../test/ConsumerProducer_CPP_Sync_API_test.hpp **** 
  28:src/../test/ConsumerProducer_CPP_Sync_API_test.hpp ****     void run() override {
  29:src/../test/ConsumerProducer_CPP_Sync_API_test.hpp ****         producerKeyboard(td);
  30:src/../test/ConsumerProducer_CPP_Sync_API_test.hpp ****     }
  31:src/../test/ConsumerProducer_CPP_Sync_API_test.hpp **** };
  32:src/../test/ConsumerProducer_CPP_Sync_API_test.hpp **** 
  33:src/../test/ConsumerProducer_CPP_Sync_API_test.hpp **** void ProducerKeyboard::producerKeyboard(void *arg) {
  34:src/../test/ConsumerProducer_CPP_Sync_API_test.hpp ****     struct thread_data *data = (struct thread_data *) arg;
  35:src/../test/ConsumerProducer_CPP_Sync_API_test.hpp **** 
  36:src/../test/ConsumerProducer_CPP_Sync_API_test.hpp ****     int key;
  37:src/../test/ConsumerProducer_CPP_Sync_API_test.hpp ****     int i = 0;
  38:src/../test/ConsumerProducer_CPP_Sync_API_test.hpp ****     while ((key = getc()) != 0x1b) {
  39:src/../test/ConsumerProducer_CPP_Sync_API_test.hpp ****         data->buffer->put(key);
  40:src/../test/ConsumerProducer_CPP_Sync_API_test.hpp ****         i++;
  41:src/../test/ConsumerProducer_CPP_Sync_API_test.hpp **** 
  42:src/../test/ConsumerProducer_CPP_Sync_API_test.hpp ****         if (i % (10 * data->id) == 0) {
  43:src/../test/ConsumerProducer_CPP_Sync_API_test.hpp ****             Thread::dispatch();
  44:src/../test/ConsumerProducer_CPP_Sync_API_test.hpp ****         }
  45:src/../test/ConsumerProducer_CPP_Sync_API_test.hpp ****     }
  46:src/../test/ConsumerProducer_CPP_Sync_API_test.hpp **** 
GAS LISTING /tmp/ccHwDEnm.s 			page 2


  47:src/../test/ConsumerProducer_CPP_Sync_API_test.hpp ****     threadEnd = 1;
  48:src/../test/ConsumerProducer_CPP_Sync_API_test.hpp ****     td->buffer->put('!');
  49:src/../test/ConsumerProducer_CPP_Sync_API_test.hpp **** 
  50:src/../test/ConsumerProducer_CPP_Sync_API_test.hpp ****     data->wait->signal();
  51:src/../test/ConsumerProducer_CPP_Sync_API_test.hpp **** }
  52:src/../test/ConsumerProducer_CPP_Sync_API_test.hpp **** 
  53:src/../test/ConsumerProducer_CPP_Sync_API_test.hpp **** class Producer:public Thread {
  54:src/../test/ConsumerProducer_CPP_Sync_API_test.hpp ****     thread_data* td;
  55:src/../test/ConsumerProducer_CPP_Sync_API_test.hpp ****     void producer(void *arg);
  56:src/../test/ConsumerProducer_CPP_Sync_API_test.hpp **** public:
  57:src/../test/ConsumerProducer_CPP_Sync_API_test.hpp ****     Producer(thread_data* _td):Thread(), td(_td) {}
  58:src/../test/ConsumerProducer_CPP_Sync_API_test.hpp **** 
  59:src/../test/ConsumerProducer_CPP_Sync_API_test.hpp ****     void run() override {
  60:src/../test/ConsumerProducer_CPP_Sync_API_test.hpp ****         producer(td);
  61:src/../test/ConsumerProducer_CPP_Sync_API_test.hpp ****     }
  62:src/../test/ConsumerProducer_CPP_Sync_API_test.hpp **** };
  63:src/../test/ConsumerProducer_CPP_Sync_API_test.hpp **** 
  64:src/../test/ConsumerProducer_CPP_Sync_API_test.hpp **** void Producer::producer(void *arg) {
  65:src/../test/ConsumerProducer_CPP_Sync_API_test.hpp ****     struct thread_data *data = (struct thread_data *) arg;
  66:src/../test/ConsumerProducer_CPP_Sync_API_test.hpp **** 
  67:src/../test/ConsumerProducer_CPP_Sync_API_test.hpp ****     int i = 0;
  68:src/../test/ConsumerProducer_CPP_Sync_API_test.hpp ****     while (!threadEnd) {
  69:src/../test/ConsumerProducer_CPP_Sync_API_test.hpp ****         data->buffer->put(data->id + '0');
  70:src/../test/ConsumerProducer_CPP_Sync_API_test.hpp ****         i++;
  71:src/../test/ConsumerProducer_CPP_Sync_API_test.hpp **** 
  72:src/../test/ConsumerProducer_CPP_Sync_API_test.hpp ****         if (i % (10 * data->id) == 0) {
  73:src/../test/ConsumerProducer_CPP_Sync_API_test.hpp ****             Thread::dispatch();
  74:src/../test/ConsumerProducer_CPP_Sync_API_test.hpp ****         }
  75:src/../test/ConsumerProducer_CPP_Sync_API_test.hpp ****     }
  76:src/../test/ConsumerProducer_CPP_Sync_API_test.hpp **** 
  77:src/../test/ConsumerProducer_CPP_Sync_API_test.hpp ****     data->wait->signal();
  78:src/../test/ConsumerProducer_CPP_Sync_API_test.hpp **** }
  79:src/../test/ConsumerProducer_CPP_Sync_API_test.hpp **** 
  80:src/../test/ConsumerProducer_CPP_Sync_API_test.hpp **** class Consumer:public Thread {
  13              		.loc 1 80 7
  14              		.cfi_startproc
  15              	.LVL0:
  16 0000 130101FF 		addi	sp,sp,-16
  17              		.cfi_def_cfa_offset 16
  18 0004 23341100 		sd	ra,8(sp)
  19 0008 23308100 		sd	s0,0(sp)
  20              		.cfi_offset 1, -8
  21              		.cfi_offset 8, -16
  22 000c 13040101 		addi	s0,sp,16
  23              		.cfi_def_cfa 8, 0
  24              	.LBB23:
  25              		.loc 1 80 7 is_stmt 0
  26 0010 97070000 		lla	a5,_ZTV8Consumer+16
  26      93870700 
  27 0018 2330F500 		sd	a5,0(a0)
  28 001c 97000000 		call	_ZN6ThreadD2Ev@plt
  28      E7800000 
  29              	.LVL1:
  30              	.LBE23:
  31 0024 83308100 		ld	ra,8(sp)
  32              		.cfi_restore 1
  33 0028 03340100 		ld	s0,0(sp)
GAS LISTING /tmp/ccHwDEnm.s 			page 3


  34              		.cfi_restore 8
  35              		.cfi_def_cfa 2, 16
  36 002c 13010101 		addi	sp,sp,16
  37              		.cfi_def_cfa_offset 0
  38 0030 67800000 		jr	ra
  39              		.cfi_endproc
  40              	.LFE39:
  42              		.weak	_ZN8ConsumerD1Ev
  43              		.set	_ZN8ConsumerD1Ev,_ZN8ConsumerD2Ev
  44              		.section	.text._ZN8ConsumerD0Ev,"axG",@progbits,_ZN8ConsumerD5Ev,comdat
  45              		.align	2
  46              		.weak	_ZN8ConsumerD0Ev
  48              	_ZN8ConsumerD0Ev:
  49              	.LFB41:
  50              		.loc 1 80 7 is_stmt 1
  51              		.cfi_startproc
  52              	.LVL2:
  53 0000 130101FE 		addi	sp,sp,-32
  54              		.cfi_def_cfa_offset 32
  55 0004 233C1100 		sd	ra,24(sp)
  56 0008 23388100 		sd	s0,16(sp)
  57 000c 23349100 		sd	s1,8(sp)
  58              		.cfi_offset 1, -8
  59              		.cfi_offset 8, -16
  60              		.cfi_offset 9, -24
  61 0010 13040102 		addi	s0,sp,32
  62              		.cfi_def_cfa 8, 0
  63 0014 93040500 		mv	s1,a0
  64              	.LVL3:
  65              	.LBB24:
  66              	.LBB25:
  67              		.loc 1 80 7 is_stmt 0
  68 0018 97070000 		lla	a5,_ZTV8Consumer+16
  68      93870700 
  69 0020 2330F500 		sd	a5,0(a0)
  70 0024 97000000 		call	_ZN6ThreadD2Ev@plt
  70      E7800000 
  71              	.LVL4:
  72              	.LBE25:
  73              	.LBE24:
  74 002c 13850400 		mv	a0,s1
  75 0030 97000000 		call	_ZdlPv@plt
  75      E7800000 
  76              	.LVL5:
  77 0038 83308101 		ld	ra,24(sp)
  78              		.cfi_restore 1
  79 003c 03340101 		ld	s0,16(sp)
  80              		.cfi_restore 8
  81              		.cfi_def_cfa 2, 32
  82 0040 83348100 		ld	s1,8(sp)
  83              		.cfi_restore 9
  84              	.LVL6:
  85 0044 13010102 		addi	sp,sp,32
  86              		.cfi_def_cfa_offset 0
  87 0048 67800000 		jr	ra
  88              		.cfi_endproc
  89              	.LFE41:
GAS LISTING /tmp/ccHwDEnm.s 			page 4


  91              		.section	.text._ZN8ProducerD2Ev,"axG",@progbits,_ZN8ProducerD5Ev,comdat
  92              		.align	2
  93              		.weak	_ZN8ProducerD2Ev
  95              	_ZN8ProducerD2Ev:
  96              	.LFB43:
  53:src/../test/ConsumerProducer_CPP_Sync_API_test.hpp ****     thread_data* td;
  97              		.loc 1 53 7 is_stmt 1
  98              		.cfi_startproc
  99              	.LVL7:
 100 0000 130101FF 		addi	sp,sp,-16
 101              		.cfi_def_cfa_offset 16
 102 0004 23341100 		sd	ra,8(sp)
 103 0008 23308100 		sd	s0,0(sp)
 104              		.cfi_offset 1, -8
 105              		.cfi_offset 8, -16
 106 000c 13040101 		addi	s0,sp,16
 107              		.cfi_def_cfa 8, 0
 108              	.LBB26:
  53:src/../test/ConsumerProducer_CPP_Sync_API_test.hpp ****     thread_data* td;
 109              		.loc 1 53 7 is_stmt 0
 110 0010 97070000 		lla	a5,_ZTV8Producer+16
 110      93870700 
 111 0018 2330F500 		sd	a5,0(a0)
 112 001c 97000000 		call	_ZN6ThreadD2Ev@plt
 112      E7800000 
 113              	.LVL8:
 114              	.LBE26:
 115 0024 83308100 		ld	ra,8(sp)
 116              		.cfi_restore 1
 117 0028 03340100 		ld	s0,0(sp)
 118              		.cfi_restore 8
 119              		.cfi_def_cfa 2, 16
 120 002c 13010101 		addi	sp,sp,16
 121              		.cfi_def_cfa_offset 0
 122 0030 67800000 		jr	ra
 123              		.cfi_endproc
 124              	.LFE43:
 126              		.weak	_ZN8ProducerD1Ev
 127              		.set	_ZN8ProducerD1Ev,_ZN8ProducerD2Ev
 128              		.section	.text._ZN8ProducerD0Ev,"axG",@progbits,_ZN8ProducerD5Ev,comdat
 129              		.align	2
 130              		.weak	_ZN8ProducerD0Ev
 132              	_ZN8ProducerD0Ev:
 133              	.LFB45:
  53:src/../test/ConsumerProducer_CPP_Sync_API_test.hpp ****     thread_data* td;
 134              		.loc 1 53 7 is_stmt 1
 135              		.cfi_startproc
 136              	.LVL9:
 137 0000 130101FE 		addi	sp,sp,-32
 138              		.cfi_def_cfa_offset 32
 139 0004 233C1100 		sd	ra,24(sp)
 140 0008 23388100 		sd	s0,16(sp)
 141 000c 23349100 		sd	s1,8(sp)
 142              		.cfi_offset 1, -8
 143              		.cfi_offset 8, -16
 144              		.cfi_offset 9, -24
 145 0010 13040102 		addi	s0,sp,32
GAS LISTING /tmp/ccHwDEnm.s 			page 5


 146              		.cfi_def_cfa 8, 0
 147 0014 93040500 		mv	s1,a0
 148              	.LVL10:
 149              	.LBB27:
 150              	.LBB28:
  53:src/../test/ConsumerProducer_CPP_Sync_API_test.hpp ****     thread_data* td;
 151              		.loc 1 53 7 is_stmt 0
 152 0018 97070000 		lla	a5,_ZTV8Producer+16
 152      93870700 
 153 0020 2330F500 		sd	a5,0(a0)
 154 0024 97000000 		call	_ZN6ThreadD2Ev@plt
 154      E7800000 
 155              	.LVL11:
 156              	.LBE28:
 157              	.LBE27:
 158 002c 13850400 		mv	a0,s1
 159 0030 97000000 		call	_ZdlPv@plt
 159      E7800000 
 160              	.LVL12:
 161 0038 83308101 		ld	ra,24(sp)
 162              		.cfi_restore 1
 163 003c 03340101 		ld	s0,16(sp)
 164              		.cfi_restore 8
 165              		.cfi_def_cfa 2, 32
 166 0040 83348100 		ld	s1,8(sp)
 167              		.cfi_restore 9
 168              	.LVL13:
 169 0044 13010102 		addi	sp,sp,32
 170              		.cfi_def_cfa_offset 0
 171 0048 67800000 		jr	ra
 172              		.cfi_endproc
 173              	.LFE45:
 175              		.section	.text._ZN16ProducerKeyboardD2Ev,"axG",@progbits,_ZN16ProducerKeyboardD5Ev,comdat
 176              		.align	2
 177              		.weak	_ZN16ProducerKeyboardD2Ev
 179              	_ZN16ProducerKeyboardD2Ev:
 180              	.LFB47:
  22:src/../test/ConsumerProducer_CPP_Sync_API_test.hpp ****     thread_data* td;
 181              		.loc 1 22 7 is_stmt 1
 182              		.cfi_startproc
 183              	.LVL14:
 184 0000 130101FF 		addi	sp,sp,-16
 185              		.cfi_def_cfa_offset 16
 186 0004 23341100 		sd	ra,8(sp)
 187 0008 23308100 		sd	s0,0(sp)
 188              		.cfi_offset 1, -8
 189              		.cfi_offset 8, -16
 190 000c 13040101 		addi	s0,sp,16
 191              		.cfi_def_cfa 8, 0
 192              	.LBB29:
  22:src/../test/ConsumerProducer_CPP_Sync_API_test.hpp ****     thread_data* td;
 193              		.loc 1 22 7 is_stmt 0
 194 0010 97070000 		lla	a5,_ZTV16ProducerKeyboard+16
 194      93870700 
 195 0018 2330F500 		sd	a5,0(a0)
 196 001c 97000000 		call	_ZN6ThreadD2Ev@plt
 196      E7800000 
GAS LISTING /tmp/ccHwDEnm.s 			page 6


 197              	.LVL15:
 198              	.LBE29:
 199 0024 83308100 		ld	ra,8(sp)
 200              		.cfi_restore 1
 201 0028 03340100 		ld	s0,0(sp)
 202              		.cfi_restore 8
 203              		.cfi_def_cfa 2, 16
 204 002c 13010101 		addi	sp,sp,16
 205              		.cfi_def_cfa_offset 0
 206 0030 67800000 		jr	ra
 207              		.cfi_endproc
 208              	.LFE47:
 210              		.weak	_ZN16ProducerKeyboardD1Ev
 211              		.set	_ZN16ProducerKeyboardD1Ev,_ZN16ProducerKeyboardD2Ev
 212              		.section	.text._ZN16ProducerKeyboardD0Ev,"axG",@progbits,_ZN16ProducerKeyboardD5Ev,comdat
 213              		.align	2
 214              		.weak	_ZN16ProducerKeyboardD0Ev
 216              	_ZN16ProducerKeyboardD0Ev:
 217              	.LFB49:
  22:src/../test/ConsumerProducer_CPP_Sync_API_test.hpp ****     thread_data* td;
 218              		.loc 1 22 7 is_stmt 1
 219              		.cfi_startproc
 220              	.LVL16:
 221 0000 130101FE 		addi	sp,sp,-32
 222              		.cfi_def_cfa_offset 32
 223 0004 233C1100 		sd	ra,24(sp)
 224 0008 23388100 		sd	s0,16(sp)
 225 000c 23349100 		sd	s1,8(sp)
 226              		.cfi_offset 1, -8
 227              		.cfi_offset 8, -16
 228              		.cfi_offset 9, -24
 229 0010 13040102 		addi	s0,sp,32
 230              		.cfi_def_cfa 8, 0
 231 0014 93040500 		mv	s1,a0
 232              	.LVL17:
 233              	.LBB30:
 234              	.LBB31:
  22:src/../test/ConsumerProducer_CPP_Sync_API_test.hpp ****     thread_data* td;
 235              		.loc 1 22 7 is_stmt 0
 236 0018 97070000 		lla	a5,_ZTV16ProducerKeyboard+16
 236      93870700 
 237 0020 2330F500 		sd	a5,0(a0)
 238 0024 97000000 		call	_ZN6ThreadD2Ev@plt
 238      E7800000 
 239              	.LVL18:
 240              	.LBE31:
 241              	.LBE30:
 242 002c 13850400 		mv	a0,s1
 243 0030 97000000 		call	_ZdlPv@plt
 243      E7800000 
 244              	.LVL19:
 245 0038 83308101 		ld	ra,24(sp)
 246              		.cfi_restore 1
 247 003c 03340101 		ld	s0,16(sp)
 248              		.cfi_restore 8
 249              		.cfi_def_cfa 2, 32
 250 0040 83348100 		ld	s1,8(sp)
GAS LISTING /tmp/ccHwDEnm.s 			page 7


 251              		.cfi_restore 9
 252              	.LVL20:
 253 0044 13010102 		addi	sp,sp,32
 254              		.cfi_def_cfa_offset 0
 255 0048 67800000 		jr	ra
 256              		.cfi_endproc
 257              	.LFE49:
 259              		.text
 260              		.align	2
 261              		.globl	_ZN16ProducerKeyboard16producerKeyboardEPv
 263              	_ZN16ProducerKeyboard16producerKeyboardEPv:
 264              	.LFB25:
  33:src/../test/ConsumerProducer_CPP_Sync_API_test.hpp ****     struct thread_data *data = (struct thread_data *) arg;
 265              		.loc 1 33 52 is_stmt 1
 266              		.cfi_startproc
 267              	.LVL21:
 268 0000 130101FD 		addi	sp,sp,-48
 269              		.cfi_def_cfa_offset 48
 270 0004 23341102 		sd	ra,40(sp)
 271 0008 23308102 		sd	s0,32(sp)
 272 000c 233C9100 		sd	s1,24(sp)
 273 0010 23382101 		sd	s2,16(sp)
 274 0014 23343101 		sd	s3,8(sp)
 275              		.cfi_offset 1, -8
 276              		.cfi_offset 8, -16
 277              		.cfi_offset 9, -24
 278              		.cfi_offset 18, -32
 279              		.cfi_offset 19, -40
 280 0018 13040103 		addi	s0,sp,48
 281              		.cfi_def_cfa 8, 0
 282 001c 93090500 		mv	s3,a0
 283 0020 93840500 		mv	s1,a1
  34:src/../test/ConsumerProducer_CPP_Sync_API_test.hpp **** 
 284              		.loc 1 34 5
 285              	.LVL22:
  36:src/../test/ConsumerProducer_CPP_Sync_API_test.hpp ****     int i = 0;
 286              		.loc 1 36 5
  37:src/../test/ConsumerProducer_CPP_Sync_API_test.hpp ****     while ((key = getc()) != 0x1b) {
 287              		.loc 1 37 5
  37:src/../test/ConsumerProducer_CPP_Sync_API_test.hpp ****     while ((key = getc()) != 0x1b) {
 288              		.loc 1 37 9 is_stmt 0
 289 0024 13090000 		li	s2,0
 290 0028 6F00C000 		j	.L14
 291              	.LVL23:
 292              	.L18:
  43:src/../test/ConsumerProducer_CPP_Sync_API_test.hpp ****         }
 293              		.loc 1 43 13 is_stmt 1
  43:src/../test/ConsumerProducer_CPP_Sync_API_test.hpp ****         }
 294              		.loc 1 43 29 is_stmt 0
 295 002c 97000000 		call	_ZN6Thread8dispatchEv@plt
 295      E7800000 
 296              	.LVL24:
 297              	.L14:
  38:src/../test/ConsumerProducer_CPP_Sync_API_test.hpp ****         data->buffer->put(key);
 298              		.loc 1 38 5 is_stmt 1
  38:src/../test/ConsumerProducer_CPP_Sync_API_test.hpp ****         data->buffer->put(key);
 299              		.loc 1 38 27
GAS LISTING /tmp/ccHwDEnm.s 			page 8


  38:src/../test/ConsumerProducer_CPP_Sync_API_test.hpp ****         data->buffer->put(key);
 300              		.loc 1 38 23 is_stmt 0
 301 0034 97000000 		call	_Z4getcv@plt
 301      E7800000 
 302              	.LVL25:
  38:src/../test/ConsumerProducer_CPP_Sync_API_test.hpp ****         data->buffer->put(key);
 303              		.loc 1 38 17
 304 003c 9B050500 		sext.w	a1,a0
 305              	.LVL26:
  38:src/../test/ConsumerProducer_CPP_Sync_API_test.hpp ****         data->buffer->put(key);
 306              		.loc 1 38 27
 307 0040 9307B001 		li	a5,27
 308 0044 638AF502 		beq	a1,a5,.L15
  39:src/../test/ConsumerProducer_CPP_Sync_API_test.hpp ****         i++;
 309              		.loc 1 39 9 is_stmt 1
  39:src/../test/ConsumerProducer_CPP_Sync_API_test.hpp ****         i++;
 310              		.loc 1 39 26 is_stmt 0
 311 0048 03B58400 		ld	a0,8(s1)
 312 004c 97000000 		call	_ZN9BufferCPP3putEi@plt
 312      E7800000 
 313              	.LVL27:
  40:src/../test/ConsumerProducer_CPP_Sync_API_test.hpp **** 
 314              		.loc 1 40 9 is_stmt 1
  40:src/../test/ConsumerProducer_CPP_Sync_API_test.hpp **** 
 315              		.loc 1 40 10 is_stmt 0
 316 0054 1B071900 		addiw	a4,s2,1
 317 0058 1B090700 		sext.w	s2,a4
 318              	.LVL28:
  42:src/../test/ConsumerProducer_CPP_Sync_API_test.hpp ****             Thread::dispatch();
 319              		.loc 1 42 9 is_stmt 1
  42:src/../test/ConsumerProducer_CPP_Sync_API_test.hpp ****             Thread::dispatch();
 320              		.loc 1 42 29 is_stmt 0
 321 005c 83A60400 		lw	a3,0(s1)
  42:src/../test/ConsumerProducer_CPP_Sync_API_test.hpp ****             Thread::dispatch();
 322              		.loc 1 42 21
 323 0060 9B972600 		slliw	a5,a3,2
 324 0064 BB87D700 		addw	a5,a5,a3
 325 0068 9B971700 		slliw	a5,a5,1
  42:src/../test/ConsumerProducer_CPP_Sync_API_test.hpp ****             Thread::dispatch();
 326              		.loc 1 42 15
 327 006c BB67F702 		remw	a5,a4,a5
  42:src/../test/ConsumerProducer_CPP_Sync_API_test.hpp ****             Thread::dispatch();
 328              		.loc 1 42 9
 329 0070 E39207FC 		bnez	a5,.L14
 330 0074 6FF09FFB 		j	.L18
 331              	.LVL29:
 332              	.L15:
  47:src/../test/ConsumerProducer_CPP_Sync_API_test.hpp ****     td->buffer->put('!');
 333              		.loc 1 47 5 is_stmt 1
  47:src/../test/ConsumerProducer_CPP_Sync_API_test.hpp ****     td->buffer->put('!');
 334              		.loc 1 47 15 is_stmt 0
 335 0078 93071000 		li	a5,1
 336 007c 17070000 		sw	a5,.LANCHOR0,a4
 336      2320F700 
  48:src/../test/ConsumerProducer_CPP_Sync_API_test.hpp **** 
 337              		.loc 1 48 5 is_stmt 1
 338 0084 83B70901 		ld	a5,16(s3)
GAS LISTING /tmp/ccHwDEnm.s 			page 9


  48:src/../test/ConsumerProducer_CPP_Sync_API_test.hpp **** 
 339              		.loc 1 48 20 is_stmt 0
 340 0088 93051002 		li	a1,33
 341              	.LVL30:
 342 008c 03B58700 		ld	a0,8(a5)
 343              	.LVL31:
 344 0090 97000000 		call	_ZN9BufferCPP3putEi@plt
 344      E7800000 
 345              	.LVL32:
  50:src/../test/ConsumerProducer_CPP_Sync_API_test.hpp **** }
 346              		.loc 1 50 5 is_stmt 1
  50:src/../test/ConsumerProducer_CPP_Sync_API_test.hpp **** }
 347              		.loc 1 50 23 is_stmt 0
 348 0098 03B50401 		ld	a0,16(s1)
 349 009c 97000000 		call	_ZN9Semaphore6signalEv@plt
 349      E7800000 
 350              	.LVL33:
  51:src/../test/ConsumerProducer_CPP_Sync_API_test.hpp **** 
 351              		.loc 1 51 1
 352 00a4 83308102 		ld	ra,40(sp)
 353              		.cfi_restore 1
 354 00a8 03340102 		ld	s0,32(sp)
 355              		.cfi_restore 8
 356              		.cfi_def_cfa 2, 48
 357 00ac 83348101 		ld	s1,24(sp)
 358              		.cfi_restore 9
 359              	.LVL34:
 360 00b0 03390101 		ld	s2,16(sp)
 361              		.cfi_restore 18
 362              	.LVL35:
 363 00b4 83398100 		ld	s3,8(sp)
 364              		.cfi_restore 19
 365              	.LVL36:
 366 00b8 13010103 		addi	sp,sp,48
 367              		.cfi_def_cfa_offset 0
 368 00bc 67800000 		jr	ra
 369              		.cfi_endproc
 370              	.LFE25:
 372              		.section	.text._ZN16ProducerKeyboard3runEv,"axG",@progbits,_ZN16ProducerKeyboard3runEv,comdat
 373              		.align	2
 374              		.weak	_ZN16ProducerKeyboard3runEv
 376              	_ZN16ProducerKeyboard3runEv:
 377              	.LFB24:
  28:src/../test/ConsumerProducer_CPP_Sync_API_test.hpp ****         producerKeyboard(td);
 378              		.loc 1 28 10 is_stmt 1
 379              		.cfi_startproc
 380              	.LVL37:
 381 0000 130101FF 		addi	sp,sp,-16
 382              		.cfi_def_cfa_offset 16
 383 0004 23341100 		sd	ra,8(sp)
 384 0008 23308100 		sd	s0,0(sp)
 385              		.cfi_offset 1, -8
 386              		.cfi_offset 8, -16
 387 000c 13040101 		addi	s0,sp,16
 388              		.cfi_def_cfa 8, 0
  29:src/../test/ConsumerProducer_CPP_Sync_API_test.hpp ****     }
 389              		.loc 1 29 9
GAS LISTING /tmp/ccHwDEnm.s 			page 10


  29:src/../test/ConsumerProducer_CPP_Sync_API_test.hpp ****     }
 390              		.loc 1 29 25 is_stmt 0
 391 0010 83350501 		ld	a1,16(a0)
 392 0014 97000000 		call	_ZN16ProducerKeyboard16producerKeyboardEPv
 392      E7800000 
 393              	.LVL38:
  30:src/../test/ConsumerProducer_CPP_Sync_API_test.hpp **** };
 394              		.loc 1 30 5
 395 001c 83308100 		ld	ra,8(sp)
 396              		.cfi_restore 1
 397 0020 03340100 		ld	s0,0(sp)
 398              		.cfi_restore 8
 399              		.cfi_def_cfa 2, 16
 400 0024 13010101 		addi	sp,sp,16
 401              		.cfi_def_cfa_offset 0
 402 0028 67800000 		jr	ra
 403              		.cfi_endproc
 404              	.LFE24:
 406              		.text
 407              		.align	2
 408              		.globl	_ZN8Producer8producerEPv
 410              	_ZN8Producer8producerEPv:
 411              	.LFB30:
  64:src/../test/ConsumerProducer_CPP_Sync_API_test.hpp ****     struct thread_data *data = (struct thread_data *) arg;
 412              		.loc 1 64 36 is_stmt 1
 413              		.cfi_startproc
 414              	.LVL39:
 415 00c0 130101FE 		addi	sp,sp,-32
 416              		.cfi_def_cfa_offset 32
 417 00c4 233C1100 		sd	ra,24(sp)
 418 00c8 23388100 		sd	s0,16(sp)
 419 00cc 23349100 		sd	s1,8(sp)
 420 00d0 23302101 		sd	s2,0(sp)
 421              		.cfi_offset 1, -8
 422              		.cfi_offset 8, -16
 423              		.cfi_offset 9, -24
 424              		.cfi_offset 18, -32
 425 00d4 13040102 		addi	s0,sp,32
 426              		.cfi_def_cfa 8, 0
 427 00d8 93840500 		mv	s1,a1
  65:src/../test/ConsumerProducer_CPP_Sync_API_test.hpp **** 
 428              		.loc 1 65 5
 429              	.LVL40:
  67:src/../test/ConsumerProducer_CPP_Sync_API_test.hpp ****     while (!threadEnd) {
 430              		.loc 1 67 5
  67:src/../test/ConsumerProducer_CPP_Sync_API_test.hpp ****     while (!threadEnd) {
 431              		.loc 1 67 9 is_stmt 0
 432 00dc 13090000 		li	s2,0
 433 00e0 6F00C000 		j	.L22
 434              	.LVL41:
 435              	.L26:
  73:src/../test/ConsumerProducer_CPP_Sync_API_test.hpp ****         }
 436              		.loc 1 73 13 is_stmt 1
  73:src/../test/ConsumerProducer_CPP_Sync_API_test.hpp ****         }
 437              		.loc 1 73 29 is_stmt 0
 438 00e4 97000000 		call	_ZN6Thread8dispatchEv@plt
 438      E7800000 
GAS LISTING /tmp/ccHwDEnm.s 			page 11


 439              	.LVL42:
 440              	.L22:
  68:src/../test/ConsumerProducer_CPP_Sync_API_test.hpp ****         data->buffer->put(data->id + '0');
 441              		.loc 1 68 5 is_stmt 1
  68:src/../test/ConsumerProducer_CPP_Sync_API_test.hpp ****         data->buffer->put(data->id + '0');
 442              		.loc 1 68 12
 443 00ec 97070000 		lw	a5,.LANCHOR0
 443      83A70700 
 444 00f4 639E0702 		bnez	a5,.L23
  69:src/../test/ConsumerProducer_CPP_Sync_API_test.hpp ****         i++;
 445              		.loc 1 69 9
  69:src/../test/ConsumerProducer_CPP_Sync_API_test.hpp ****         i++;
 446              		.loc 1 69 33 is_stmt 0
 447 00f8 83A50400 		lw	a1,0(s1)
  69:src/../test/ConsumerProducer_CPP_Sync_API_test.hpp ****         i++;
 448              		.loc 1 69 26
 449 00fc 9B850503 		addiw	a1,a1,48
 450 0100 03B58400 		ld	a0,8(s1)
 451 0104 97000000 		call	_ZN9BufferCPP3putEi@plt
 451      E7800000 
 452              	.LVL43:
  70:src/../test/ConsumerProducer_CPP_Sync_API_test.hpp **** 
 453              		.loc 1 70 9 is_stmt 1
  70:src/../test/ConsumerProducer_CPP_Sync_API_test.hpp **** 
 454              		.loc 1 70 10 is_stmt 0
 455 010c 1B071900 		addiw	a4,s2,1
 456 0110 1B090700 		sext.w	s2,a4
 457              	.LVL44:
  72:src/../test/ConsumerProducer_CPP_Sync_API_test.hpp ****             Thread::dispatch();
 458              		.loc 1 72 9 is_stmt 1
  72:src/../test/ConsumerProducer_CPP_Sync_API_test.hpp ****             Thread::dispatch();
 459              		.loc 1 72 29 is_stmt 0
 460 0114 83A60400 		lw	a3,0(s1)
  72:src/../test/ConsumerProducer_CPP_Sync_API_test.hpp ****             Thread::dispatch();
 461              		.loc 1 72 21
 462 0118 9B972600 		slliw	a5,a3,2
 463 011c BB87D700 		addw	a5,a5,a3
 464 0120 9B971700 		slliw	a5,a5,1
  72:src/../test/ConsumerProducer_CPP_Sync_API_test.hpp ****             Thread::dispatch();
 465              		.loc 1 72 15
 466 0124 BB67F702 		remw	a5,a4,a5
  72:src/../test/ConsumerProducer_CPP_Sync_API_test.hpp ****             Thread::dispatch();
 467              		.loc 1 72 9
 468 0128 E39207FC 		bnez	a5,.L22
 469 012c 6FF09FFB 		j	.L26
 470              	.LVL45:
 471              	.L23:
  77:src/../test/ConsumerProducer_CPP_Sync_API_test.hpp **** }
 472              		.loc 1 77 5 is_stmt 1
  77:src/../test/ConsumerProducer_CPP_Sync_API_test.hpp **** }
 473              		.loc 1 77 23 is_stmt 0
 474 0130 03B50401 		ld	a0,16(s1)
 475 0134 97000000 		call	_ZN9Semaphore6signalEv@plt
 475      E7800000 
 476              	.LVL46:
  78:src/../test/ConsumerProducer_CPP_Sync_API_test.hpp **** 
 477              		.loc 1 78 1
GAS LISTING /tmp/ccHwDEnm.s 			page 12


 478 013c 83308101 		ld	ra,24(sp)
 479              		.cfi_restore 1
 480 0140 03340101 		ld	s0,16(sp)
 481              		.cfi_restore 8
 482              		.cfi_def_cfa 2, 32
 483 0144 83348100 		ld	s1,8(sp)
 484              		.cfi_restore 9
 485              	.LVL47:
 486 0148 03390100 		ld	s2,0(sp)
 487              		.cfi_restore 18
 488              	.LVL48:
 489 014c 13010102 		addi	sp,sp,32
 490              		.cfi_def_cfa_offset 0
 491 0150 67800000 		jr	ra
 492              		.cfi_endproc
 493              	.LFE30:
 495              		.section	.text._ZN8Producer3runEv,"axG",@progbits,_ZN8Producer3runEv,comdat
 496              		.align	2
 497              		.weak	_ZN8Producer3runEv
 499              	_ZN8Producer3runEv:
 500              	.LFB29:
  59:src/../test/ConsumerProducer_CPP_Sync_API_test.hpp ****         producer(td);
 501              		.loc 1 59 10 is_stmt 1
 502              		.cfi_startproc
 503              	.LVL49:
 504 0000 130101FF 		addi	sp,sp,-16
 505              		.cfi_def_cfa_offset 16
 506 0004 23341100 		sd	ra,8(sp)
 507 0008 23308100 		sd	s0,0(sp)
 508              		.cfi_offset 1, -8
 509              		.cfi_offset 8, -16
 510 000c 13040101 		addi	s0,sp,16
 511              		.cfi_def_cfa 8, 0
  60:src/../test/ConsumerProducer_CPP_Sync_API_test.hpp ****     }
 512              		.loc 1 60 9
  60:src/../test/ConsumerProducer_CPP_Sync_API_test.hpp ****     }
 513              		.loc 1 60 17 is_stmt 0
 514 0010 83350501 		ld	a1,16(a0)
 515 0014 97000000 		call	_ZN8Producer8producerEPv
 515      E7800000 
 516              	.LVL50:
  61:src/../test/ConsumerProducer_CPP_Sync_API_test.hpp **** };
 517              		.loc 1 61 5
 518 001c 83308100 		ld	ra,8(sp)
 519              		.cfi_restore 1
 520 0020 03340100 		ld	s0,0(sp)
 521              		.cfi_restore 8
 522              		.cfi_def_cfa 2, 16
 523 0024 13010101 		addi	sp,sp,16
 524              		.cfi_def_cfa_offset 0
 525 0028 67800000 		jr	ra
 526              		.cfi_endproc
 527              	.LFE29:
 529              		.text
 530              		.align	2
 531              		.globl	_ZN8Consumer8consumerEPv
 533              	_ZN8Consumer8consumerEPv:
GAS LISTING /tmp/ccHwDEnm.s 			page 13


 534              	.LFB35:
  81:src/../test/ConsumerProducer_CPP_Sync_API_test.hpp ****     thread_data* td;
  82:src/../test/ConsumerProducer_CPP_Sync_API_test.hpp ****     void consumer(void *arg);
  83:src/../test/ConsumerProducer_CPP_Sync_API_test.hpp **** public:
  84:src/../test/ConsumerProducer_CPP_Sync_API_test.hpp ****     Consumer(thread_data* _td):Thread(), td(_td) {}
  85:src/../test/ConsumerProducer_CPP_Sync_API_test.hpp **** 
  86:src/../test/ConsumerProducer_CPP_Sync_API_test.hpp ****     void run() override {
  87:src/../test/ConsumerProducer_CPP_Sync_API_test.hpp ****         consumer(td);
  88:src/../test/ConsumerProducer_CPP_Sync_API_test.hpp ****     }
  89:src/../test/ConsumerProducer_CPP_Sync_API_test.hpp **** };
  90:src/../test/ConsumerProducer_CPP_Sync_API_test.hpp **** 
  91:src/../test/ConsumerProducer_CPP_Sync_API_test.hpp **** void Consumer::consumer(void *arg) {
 535              		.loc 1 91 36 is_stmt 1
 536              		.cfi_startproc
 537              	.LVL51:
 538 0154 130101FD 		addi	sp,sp,-48
 539              		.cfi_def_cfa_offset 48
 540 0158 23341102 		sd	ra,40(sp)
 541 015c 23308102 		sd	s0,32(sp)
 542 0160 233C9100 		sd	s1,24(sp)
 543 0164 23382101 		sd	s2,16(sp)
 544 0168 23343101 		sd	s3,8(sp)
 545 016c 23304101 		sd	s4,0(sp)
 546              		.cfi_offset 1, -8
 547              		.cfi_offset 8, -16
 548              		.cfi_offset 9, -24
 549              		.cfi_offset 18, -32
 550              		.cfi_offset 19, -40
 551              		.cfi_offset 20, -48
 552 0170 13040103 		addi	s0,sp,48
 553              		.cfi_def_cfa 8, 0
 554 0174 93090500 		mv	s3,a0
 555 0178 13890500 		mv	s2,a1
  92:src/../test/ConsumerProducer_CPP_Sync_API_test.hpp ****     struct thread_data *data = (struct thread_data *) arg;
 556              		.loc 1 92 5
 557              	.LVL52:
  93:src/../test/ConsumerProducer_CPP_Sync_API_test.hpp **** 
  94:src/../test/ConsumerProducer_CPP_Sync_API_test.hpp ****     int i = 0;
 558              		.loc 1 94 5
 559              		.loc 1 94 9 is_stmt 0
 560 017c 130A0000 		li	s4,0
 561 0180 6F00C001 		j	.L30
 562              	.LVL53:
 563              	.L36:
 564              	.LBB32:
  95:src/../test/ConsumerProducer_CPP_Sync_API_test.hpp ****     while (!threadEnd) {
  96:src/../test/ConsumerProducer_CPP_Sync_API_test.hpp ****         int key = data->buffer->get();
  97:src/../test/ConsumerProducer_CPP_Sync_API_test.hpp ****         i++;
  98:src/../test/ConsumerProducer_CPP_Sync_API_test.hpp **** 
  99:src/../test/ConsumerProducer_CPP_Sync_API_test.hpp ****         putc(key);
 100:src/../test/ConsumerProducer_CPP_Sync_API_test.hpp **** 
 101:src/../test/ConsumerProducer_CPP_Sync_API_test.hpp ****         if (i % (5 * data->id) == 0) {
 102:src/../test/ConsumerProducer_CPP_Sync_API_test.hpp ****             Thread::dispatch();
 565              		.loc 1 102 13 is_stmt 1
 566              		.loc 1 102 29 is_stmt 0
 567 0184 97000000 		call	_ZN6Thread8dispatchEv@plt
 567      E7800000 
GAS LISTING /tmp/ccHwDEnm.s 			page 14


 568              	.LVL54:
 569 018c 6F000005 		j	.L32
 570              	.LVL55:
 571              	.L37:
 103:src/../test/ConsumerProducer_CPP_Sync_API_test.hpp ****         }
 104:src/../test/ConsumerProducer_CPP_Sync_API_test.hpp **** 
 105:src/../test/ConsumerProducer_CPP_Sync_API_test.hpp ****         if (i % 80 == 0) {
 106:src/../test/ConsumerProducer_CPP_Sync_API_test.hpp ****             putc('\n');
 572              		.loc 1 106 13 is_stmt 1
 573              		.loc 1 106 17 is_stmt 0
 574 0190 1305A000 		li	a0,10
 575 0194 97000000 		call	_Z4putcc@plt
 575      E7800000 
 576              	.LVL56:
 577              	.L30:
 578              	.LBE32:
  95:src/../test/ConsumerProducer_CPP_Sync_API_test.hpp ****     while (!threadEnd) {
 579              		.loc 1 95 5 is_stmt 1
  95:src/../test/ConsumerProducer_CPP_Sync_API_test.hpp ****     while (!threadEnd) {
 580              		.loc 1 95 12
 581 019c 97070000 		lw	a5,.LANCHOR0
 581      83A70700 
 582 01a4 63920706 		bnez	a5,.L31
 583              	.LBB33:
  96:src/../test/ConsumerProducer_CPP_Sync_API_test.hpp ****         i++;
 584              		.loc 1 96 9
  96:src/../test/ConsumerProducer_CPP_Sync_API_test.hpp ****         i++;
 585              		.loc 1 96 36 is_stmt 0
 586 01a8 03358900 		ld	a0,8(s2)
 587 01ac 97000000 		call	_ZN9BufferCPP3getEv@plt
 587      E7800000 
 588              	.LVL57:
  97:src/../test/ConsumerProducer_CPP_Sync_API_test.hpp **** 
 589              		.loc 1 97 9 is_stmt 1
  97:src/../test/ConsumerProducer_CPP_Sync_API_test.hpp **** 
 590              		.loc 1 97 10 is_stmt 0
 591 01b4 9B041A00 		addiw	s1,s4,1
 592 01b8 1B8A0400 		sext.w	s4,s1
 593              	.LVL58:
  99:src/../test/ConsumerProducer_CPP_Sync_API_test.hpp **** 
 594              		.loc 1 99 9 is_stmt 1
  99:src/../test/ConsumerProducer_CPP_Sync_API_test.hpp **** 
 595              		.loc 1 99 13 is_stmt 0
 596 01bc 1375F50F 		andi	a0,a0,0xff
 597              	.LVL59:
 598 01c0 97000000 		call	_Z4putcc@plt
 598      E7800000 
 599              	.LVL60:
 101:src/../test/ConsumerProducer_CPP_Sync_API_test.hpp ****             Thread::dispatch();
 600              		.loc 1 101 9 is_stmt 1
 101:src/../test/ConsumerProducer_CPP_Sync_API_test.hpp ****             Thread::dispatch();
 601              		.loc 1 101 28 is_stmt 0
 602 01c8 03270900 		lw	a4,0(s2)
 101:src/../test/ConsumerProducer_CPP_Sync_API_test.hpp ****             Thread::dispatch();
 603              		.loc 1 101 20
 604 01cc 9B172700 		slliw	a5,a4,2
 605 01d0 BB87E700 		addw	a5,a5,a4
GAS LISTING /tmp/ccHwDEnm.s 			page 15


 101:src/../test/ConsumerProducer_CPP_Sync_API_test.hpp ****             Thread::dispatch();
 606              		.loc 1 101 15
 607 01d4 BBE7F402 		remw	a5,s1,a5
 101:src/../test/ConsumerProducer_CPP_Sync_API_test.hpp ****             Thread::dispatch();
 608              		.loc 1 101 9
 609 01d8 E38607FA 		beqz	a5,.L36
 610              	.L32:
 105:src/../test/ConsumerProducer_CPP_Sync_API_test.hpp ****             putc('\n');
 611              		.loc 1 105 9 is_stmt 1
 105:src/../test/ConsumerProducer_CPP_Sync_API_test.hpp ****             putc('\n');
 612              		.loc 1 105 15 is_stmt 0
 613 01dc 93070005 		li	a5,80
 614 01e0 BBE4F402 		remw	s1,s1,a5
 615              	.LVL61:
 105:src/../test/ConsumerProducer_CPP_Sync_API_test.hpp ****             putc('\n');
 616              		.loc 1 105 9
 617 01e4 E39C04FA 		bnez	s1,.L30
 618 01e8 6FF09FFA 		j	.L37
 619              	.L38:
 620              	.LBE33:
 621              	.LBB34:
 107:src/../test/ConsumerProducer_CPP_Sync_API_test.hpp ****         }
 108:src/../test/ConsumerProducer_CPP_Sync_API_test.hpp ****     }
 109:src/../test/ConsumerProducer_CPP_Sync_API_test.hpp **** 
 110:src/../test/ConsumerProducer_CPP_Sync_API_test.hpp **** 
 111:src/../test/ConsumerProducer_CPP_Sync_API_test.hpp ****     while (td->buffer->getCnt() > 0) {
 112:src/../test/ConsumerProducer_CPP_Sync_API_test.hpp ****         int key = td->buffer->get();
 622              		.loc 1 112 9 is_stmt 1
 623              		.loc 1 112 19 is_stmt 0
 624 01ec 83B70901 		ld	a5,16(s3)
 625              		.loc 1 112 34
 626 01f0 03B58700 		ld	a0,8(a5)
 627 01f4 97000000 		call	_ZN9BufferCPP3getEv@plt
 627      E7800000 
 628              	.LVL62:
 113:src/../test/ConsumerProducer_CPP_Sync_API_test.hpp ****         putc(key);
 629              		.loc 1 113 9 is_stmt 1
 630              		.loc 1 113 13 is_stmt 0
 631 01fc 1375F50F 		andi	a0,a0,0xff
 632              	.LVL63:
 633 0200 97000000 		call	_Z4putcc@plt
 633      E7800000 
 634              	.LVL64:
 635              	.L31:
 636              	.LBE34:
 111:src/../test/ConsumerProducer_CPP_Sync_API_test.hpp ****         int key = td->buffer->get();
 637              		.loc 1 111 5 is_stmt 1
 111:src/../test/ConsumerProducer_CPP_Sync_API_test.hpp ****         int key = td->buffer->get();
 638              		.loc 1 111 33
 111:src/../test/ConsumerProducer_CPP_Sync_API_test.hpp ****         int key = td->buffer->get();
 639              		.loc 1 111 12 is_stmt 0
 640 0208 83B70901 		ld	a5,16(s3)
 111:src/../test/ConsumerProducer_CPP_Sync_API_test.hpp ****         int key = td->buffer->get();
 641              		.loc 1 111 30
 642 020c 03B58700 		ld	a0,8(a5)
 643 0210 97000000 		call	_ZN9BufferCPP6getCntEv@plt
 643      E7800000 
GAS LISTING /tmp/ccHwDEnm.s 			page 16


 644              	.LVL65:
 111:src/../test/ConsumerProducer_CPP_Sync_API_test.hpp ****         int key = td->buffer->get();
 645              		.loc 1 111 33
 646 0218 E34AA0FC 		bgtz	a0,.L38
 114:src/../test/ConsumerProducer_CPP_Sync_API_test.hpp ****     }
 115:src/../test/ConsumerProducer_CPP_Sync_API_test.hpp **** 
 116:src/../test/ConsumerProducer_CPP_Sync_API_test.hpp ****     data->wait->signal();
 647              		.loc 1 116 5 is_stmt 1
 648              		.loc 1 116 23 is_stmt 0
 649 021c 03350901 		ld	a0,16(s2)
 650 0220 97000000 		call	_ZN9Semaphore6signalEv@plt
 650      E7800000 
 651              	.LVL66:
 117:src/../test/ConsumerProducer_CPP_Sync_API_test.hpp **** }
 652              		.loc 1 117 1
 653 0228 83308102 		ld	ra,40(sp)
 654              		.cfi_restore 1
 655 022c 03340102 		ld	s0,32(sp)
 656              		.cfi_restore 8
 657              		.cfi_def_cfa 2, 48
 658 0230 83348101 		ld	s1,24(sp)
 659              		.cfi_restore 9
 660 0234 03390101 		ld	s2,16(sp)
 661              		.cfi_restore 18
 662              	.LVL67:
 663 0238 83398100 		ld	s3,8(sp)
 664              		.cfi_restore 19
 665              	.LVL68:
 666 023c 033A0100 		ld	s4,0(sp)
 667              		.cfi_restore 20
 668              	.LVL69:
 669 0240 13010103 		addi	sp,sp,48
 670              		.cfi_def_cfa_offset 0
 671 0244 67800000 		jr	ra
 672              		.cfi_endproc
 673              	.LFE35:
 675              		.section	.text._ZN8Consumer3runEv,"axG",@progbits,_ZN8Consumer3runEv,comdat
 676              		.align	2
 677              		.weak	_ZN8Consumer3runEv
 679              	_ZN8Consumer3runEv:
 680              	.LFB34:
  86:src/../test/ConsumerProducer_CPP_Sync_API_test.hpp ****         consumer(td);
 681              		.loc 1 86 10 is_stmt 1
 682              		.cfi_startproc
 683              	.LVL70:
 684 0000 130101FF 		addi	sp,sp,-16
 685              		.cfi_def_cfa_offset 16
 686 0004 23341100 		sd	ra,8(sp)
 687 0008 23308100 		sd	s0,0(sp)
 688              		.cfi_offset 1, -8
 689              		.cfi_offset 8, -16
 690 000c 13040101 		addi	s0,sp,16
 691              		.cfi_def_cfa 8, 0
  87:src/../test/ConsumerProducer_CPP_Sync_API_test.hpp ****     }
 692              		.loc 1 87 9
  87:src/../test/ConsumerProducer_CPP_Sync_API_test.hpp ****     }
 693              		.loc 1 87 17 is_stmt 0
GAS LISTING /tmp/ccHwDEnm.s 			page 17


 694 0010 83350501 		ld	a1,16(a0)
 695 0014 97000000 		call	_ZN8Consumer8consumerEPv
 695      E7800000 
 696              	.LVL71:
  88:src/../test/ConsumerProducer_CPP_Sync_API_test.hpp **** };
 697              		.loc 1 88 5
 698 001c 83308100 		ld	ra,8(sp)
 699              		.cfi_restore 1
 700 0020 03340100 		ld	s0,0(sp)
 701              		.cfi_restore 8
 702              		.cfi_def_cfa 2, 16
 703 0024 13010101 		addi	sp,sp,16
 704              		.cfi_def_cfa_offset 0
 705 0028 67800000 		jr	ra
 706              		.cfi_endproc
 707              	.LFE34:
 709              		.section	.rodata.str1.8,"aMS",@progbits,1
 710              		.align	3
 711              	.LC0:
 712 0000 556E6573 		.string	"Unesite broj proizvodjaca?\n"
 712      69746520 
 712      62726F6A 
 712      2070726F 
 712      697A766F 
 713 001c 00000000 		.align	3
 714              	.LC1:
 715 0020 556E6573 		.string	"Unesite velicinu bafera?\n"
 715      69746520 
 715      76656C69 
 715      63696E75 
 715      20626166 
 716 003a 00000000 		.align	3
 716      0000
 717              	.LC2:
 718 0040 42726F6A 		.string	"Broj proizvodjaca "
 718      2070726F 
 718      697A766F 
 718      646A6163 
 718      612000
 719 0053 00000000 		.align	3
 719      00
 720              	.LC3:
 721 0058 20692076 		.string	" i velicina bafera "
 721      656C6963 
 721      696E6120 
 721      62616665 
 721      72612000 
 722 006c 00000000 		.align	3
 723              	.LC4:
 724 0070 2E0A00   		.string	".\n"
 725 0073 00000000 		.align	3
 725      00
 726              	.LC5:
 727 0078 42726F6A 		.string	"Broj proizvodjaca ne sme biti manji od velicine bafera!\n"
 727      2070726F 
 727      697A766F 
 727      646A6163 
GAS LISTING /tmp/ccHwDEnm.s 			page 18


 727      61206E65 
 728 00b1 00000000 		.align	3
 728      000000
 729              	.LC6:
 730 00b8 42726F6A 		.string	"Broj proizvodjaca mora biti veci od nula!\n"
 730      2070726F 
 730      697A766F 
 730      646A6163 
 730      61206D6F 
 731              		.text
 732              		.align	2
 733              		.globl	_Z29producerConsumer_CPP_Sync_APIv
 735              	_Z29producerConsumer_CPP_Sync_APIv:
 736              	.LFB36:
 118:src/../test/ConsumerProducer_CPP_Sync_API_test.hpp **** 
 119:src/../test/ConsumerProducer_CPP_Sync_API_test.hpp **** void producerConsumer_CPP_Sync_API() {
 737              		.loc 1 119 38 is_stmt 1
 738              		.cfi_startproc
 739              		.cfi_personality 0x9b,DW.ref.__gxx_personality_v0
 740              		.cfi_lsda 0x1b,.LLSDA36
 741 0248 130101F8 		addi	sp,sp,-128
 742              		.cfi_def_cfa_offset 128
 743 024c 233C1106 		sd	ra,120(sp)
 744 0250 23388106 		sd	s0,112(sp)
 745 0254 23349106 		sd	s1,104(sp)
 746 0258 23302107 		sd	s2,96(sp)
 747 025c 233C3105 		sd	s3,88(sp)
 748 0260 23384105 		sd	s4,80(sp)
 749 0264 23345105 		sd	s5,72(sp)
 750 0268 23306105 		sd	s6,64(sp)
 751 026c 233C7103 		sd	s7,56(sp)
 752 0270 23388103 		sd	s8,48(sp)
 753 0274 23349103 		sd	s9,40(sp)
 754              		.cfi_offset 1, -8
 755              		.cfi_offset 8, -16
 756              		.cfi_offset 9, -24
 757              		.cfi_offset 18, -32
 758              		.cfi_offset 19, -40
 759              		.cfi_offset 20, -48
 760              		.cfi_offset 21, -56
 761              		.cfi_offset 22, -64
 762              		.cfi_offset 23, -72
 763              		.cfi_offset 24, -80
 764              		.cfi_offset 25, -88
 765 0278 13040108 		addi	s0,sp,128
 766              		.cfi_def_cfa 8, 0
 120:src/../test/ConsumerProducer_CPP_Sync_API_test.hpp ****     char input[30];
 121:src/../test/ConsumerProducer_CPP_Sync_API_test.hpp ****     int n, threadNum;
 122:src/../test/ConsumerProducer_CPP_Sync_API_test.hpp **** 
 123:src/../test/ConsumerProducer_CPP_Sync_API_test.hpp ****     printString("Unesite broj proizvodjaca?\n");
 124:src/../test/ConsumerProducer_CPP_Sync_API_test.hpp ****     getString(input, 30);
 125:src/../test/ConsumerProducer_CPP_Sync_API_test.hpp ****     threadNum = stringToInt(input);
 126:src/../test/ConsumerProducer_CPP_Sync_API_test.hpp **** 
 127:src/../test/ConsumerProducer_CPP_Sync_API_test.hpp ****     printString("Unesite velicinu bafera?\n");
 128:src/../test/ConsumerProducer_CPP_Sync_API_test.hpp ****     getString(input, 30);
 129:src/../test/ConsumerProducer_CPP_Sync_API_test.hpp ****     n = stringToInt(input);
 130:src/../test/ConsumerProducer_CPP_Sync_API_test.hpp **** 
GAS LISTING /tmp/ccHwDEnm.s 			page 19


 131:src/../test/ConsumerProducer_CPP_Sync_API_test.hpp ****     printString("Broj proizvodjaca "); printInt(threadNum);
 132:src/../test/ConsumerProducer_CPP_Sync_API_test.hpp ****     printString(" i velicina bafera "); printInt(n);
 133:src/../test/ConsumerProducer_CPP_Sync_API_test.hpp ****     printString(".\n");
 134:src/../test/ConsumerProducer_CPP_Sync_API_test.hpp **** 
 135:src/../test/ConsumerProducer_CPP_Sync_API_test.hpp ****     if(threadNum > n) {
 136:src/../test/ConsumerProducer_CPP_Sync_API_test.hpp ****         printString("Broj proizvodjaca ne sme biti manji od velicine bafera!\n");
 137:src/../test/ConsumerProducer_CPP_Sync_API_test.hpp ****         return;
 138:src/../test/ConsumerProducer_CPP_Sync_API_test.hpp ****     } else if (threadNum < 1) {
 139:src/../test/ConsumerProducer_CPP_Sync_API_test.hpp ****         printString("Broj proizvodjaca mora biti veci od nula!\n");
 140:src/../test/ConsumerProducer_CPP_Sync_API_test.hpp ****         return;
 141:src/../test/ConsumerProducer_CPP_Sync_API_test.hpp ****     }
 142:src/../test/ConsumerProducer_CPP_Sync_API_test.hpp **** 
 143:src/../test/ConsumerProducer_CPP_Sync_API_test.hpp ****     BufferCPP *buffer = new BufferCPP(n);
 144:src/../test/ConsumerProducer_CPP_Sync_API_test.hpp **** 
 145:src/../test/ConsumerProducer_CPP_Sync_API_test.hpp ****     waitForAll = new Semaphore(0);
 146:src/../test/ConsumerProducer_CPP_Sync_API_test.hpp **** 
 147:src/../test/ConsumerProducer_CPP_Sync_API_test.hpp ****     Thread* threads[threadNum];
 148:src/../test/ConsumerProducer_CPP_Sync_API_test.hpp ****     Thread* consumerThread;
 149:src/../test/ConsumerProducer_CPP_Sync_API_test.hpp **** 
 150:src/../test/ConsumerProducer_CPP_Sync_API_test.hpp ****     struct thread_data data[threadNum + 1];
 151:src/../test/ConsumerProducer_CPP_Sync_API_test.hpp **** 
 152:src/../test/ConsumerProducer_CPP_Sync_API_test.hpp ****     data[threadNum].id = threadNum;
 153:src/../test/ConsumerProducer_CPP_Sync_API_test.hpp ****     data[threadNum].buffer = buffer;
 154:src/../test/ConsumerProducer_CPP_Sync_API_test.hpp ****     data[threadNum].wait = waitForAll;
 155:src/../test/ConsumerProducer_CPP_Sync_API_test.hpp ****     consumerThread = new Consumer(data+threadNum);
 156:src/../test/ConsumerProducer_CPP_Sync_API_test.hpp ****     consumerThread->start();
 157:src/../test/ConsumerProducer_CPP_Sync_API_test.hpp **** 
 158:src/../test/ConsumerProducer_CPP_Sync_API_test.hpp ****     for (int i = 0; i < threadNum; i++) {
 159:src/../test/ConsumerProducer_CPP_Sync_API_test.hpp ****         data[i].id = i;
 160:src/../test/ConsumerProducer_CPP_Sync_API_test.hpp ****         data[i].buffer = buffer;
 161:src/../test/ConsumerProducer_CPP_Sync_API_test.hpp ****         data[i].wait = waitForAll;
 162:src/../test/ConsumerProducer_CPP_Sync_API_test.hpp **** 
 163:src/../test/ConsumerProducer_CPP_Sync_API_test.hpp ****         if(i>0) {
 164:src/../test/ConsumerProducer_CPP_Sync_API_test.hpp ****             threads[i] = new Producer(data+i);
 165:src/../test/ConsumerProducer_CPP_Sync_API_test.hpp ****         } else {
 166:src/../test/ConsumerProducer_CPP_Sync_API_test.hpp ****             threads[i] = new ProducerKeyboard(data+i);
 167:src/../test/ConsumerProducer_CPP_Sync_API_test.hpp ****         }
 168:src/../test/ConsumerProducer_CPP_Sync_API_test.hpp **** 
 169:src/../test/ConsumerProducer_CPP_Sync_API_test.hpp ****         threads[i]->start();
 170:src/../test/ConsumerProducer_CPP_Sync_API_test.hpp ****     }
 171:src/../test/ConsumerProducer_CPP_Sync_API_test.hpp **** 
 172:src/../test/ConsumerProducer_CPP_Sync_API_test.hpp ****     Thread::dispatch();
 173:src/../test/ConsumerProducer_CPP_Sync_API_test.hpp **** 
 174:src/../test/ConsumerProducer_CPP_Sync_API_test.hpp ****     for (int i = 0; i <= threadNum; i++) {
 175:src/../test/ConsumerProducer_CPP_Sync_API_test.hpp ****         waitForAll->wait();
 176:src/../test/ConsumerProducer_CPP_Sync_API_test.hpp ****     }
 177:src/../test/ConsumerProducer_CPP_Sync_API_test.hpp **** 
 178:src/../test/ConsumerProducer_CPP_Sync_API_test.hpp ****     for (int i = 0; i < threadNum; i++) {
 179:src/../test/ConsumerProducer_CPP_Sync_API_test.hpp ****         delete threads[i];
 180:src/../test/ConsumerProducer_CPP_Sync_API_test.hpp ****     }
 181:src/../test/ConsumerProducer_CPP_Sync_API_test.hpp ****     delete consumerThread;
 182:src/../test/ConsumerProducer_CPP_Sync_API_test.hpp ****     delete waitForAll;
 183:src/../test/ConsumerProducer_CPP_Sync_API_test.hpp ****     delete buffer;
 767              		.loc 1 183 18 is_stmt 0
 768 027c 930B0100 		mv	s7,sp
 120:src/../test/ConsumerProducer_CPP_Sync_API_test.hpp ****     char input[30];
 769              		.loc 1 120 5 is_stmt 1
GAS LISTING /tmp/ccHwDEnm.s 			page 20


 121:src/../test/ConsumerProducer_CPP_Sync_API_test.hpp **** 
 770              		.loc 1 121 5
 123:src/../test/ConsumerProducer_CPP_Sync_API_test.hpp ****     getString(input, 30);
 771              		.loc 1 123 5
 123:src/../test/ConsumerProducer_CPP_Sync_API_test.hpp ****     getString(input, 30);
 772              		.loc 1 123 16 is_stmt 0
 773 0280 17050000 		lla	a0,.LC0
 773      13050500 
 774              	.LEHB0:
 775 0288 97000000 		call	_Z11printStringPKc@plt
 775      E7800000 
 776              	.LVL72:
 124:src/../test/ConsumerProducer_CPP_Sync_API_test.hpp ****     threadNum = stringToInt(input);
 777              		.loc 1 124 5 is_stmt 1
 124:src/../test/ConsumerProducer_CPP_Sync_API_test.hpp ****     threadNum = stringToInt(input);
 778              		.loc 1 124 14 is_stmt 0
 779 0290 9305E001 		li	a1,30
 780 0294 930404F8 		addi	s1,s0,-128
 781 0298 13850400 		mv	a0,s1
 782 029c 97000000 		call	_Z9getStringPci@plt
 782      E7800000 
 783              	.LVL73:
 125:src/../test/ConsumerProducer_CPP_Sync_API_test.hpp **** 
 784              		.loc 1 125 5 is_stmt 1
 125:src/../test/ConsumerProducer_CPP_Sync_API_test.hpp **** 
 785              		.loc 1 125 28 is_stmt 0
 786 02a4 13850400 		mv	a0,s1
 787 02a8 97000000 		call	_Z11stringToIntPKc@plt
 787      E7800000 
 788              	.LVL74:
 789 02b0 13090500 		mv	s2,a0
 790              	.LVL75:
 127:src/../test/ConsumerProducer_CPP_Sync_API_test.hpp ****     getString(input, 30);
 791              		.loc 1 127 5 is_stmt 1
 127:src/../test/ConsumerProducer_CPP_Sync_API_test.hpp ****     getString(input, 30);
 792              		.loc 1 127 16 is_stmt 0
 793 02b4 17050000 		lla	a0,.LC1
 793      13050500 
 794 02bc 97000000 		call	_Z11printStringPKc@plt
 794      E7800000 
 795              	.LVL76:
 128:src/../test/ConsumerProducer_CPP_Sync_API_test.hpp ****     n = stringToInt(input);
 796              		.loc 1 128 5 is_stmt 1
 128:src/../test/ConsumerProducer_CPP_Sync_API_test.hpp ****     n = stringToInt(input);
 797              		.loc 1 128 14 is_stmt 0
 798 02c4 9305E001 		li	a1,30
 799 02c8 13850400 		mv	a0,s1
 800 02cc 97000000 		call	_Z9getStringPci@plt
 800      E7800000 
 801              	.LVL77:
 129:src/../test/ConsumerProducer_CPP_Sync_API_test.hpp **** 
 802              		.loc 1 129 5 is_stmt 1
 129:src/../test/ConsumerProducer_CPP_Sync_API_test.hpp **** 
 803              		.loc 1 129 20 is_stmt 0
 804 02d4 13850400 		mv	a0,s1
 805 02d8 97000000 		call	_Z11stringToIntPKc@plt
 805      E7800000 
GAS LISTING /tmp/ccHwDEnm.s 			page 21


 806              	.LVL78:
 807 02e0 93040500 		mv	s1,a0
 808              	.LVL79:
 131:src/../test/ConsumerProducer_CPP_Sync_API_test.hpp ****     printString(" i velicina bafera "); printInt(n);
 809              		.loc 1 131 5 is_stmt 1
 131:src/../test/ConsumerProducer_CPP_Sync_API_test.hpp ****     printString(" i velicina bafera "); printInt(n);
 810              		.loc 1 131 16 is_stmt 0
 811 02e4 17050000 		lla	a0,.LC2
 811      13050500 
 812 02ec 97000000 		call	_Z11printStringPKc@plt
 812      E7800000 
 813              	.LVL80:
 131:src/../test/ConsumerProducer_CPP_Sync_API_test.hpp ****     printString(" i velicina bafera "); printInt(n);
 814              		.loc 1 131 40 is_stmt 1
 131:src/../test/ConsumerProducer_CPP_Sync_API_test.hpp ****     printString(" i velicina bafera "); printInt(n);
 815              		.loc 1 131 48 is_stmt 0
 816 02f4 13060000 		li	a2,0
 817 02f8 9305A000 		li	a1,10
 818 02fc 13050900 		mv	a0,s2
 819 0300 97000000 		call	_Z8printIntiii@plt
 819      E7800000 
 820              	.LVL81:
 132:src/../test/ConsumerProducer_CPP_Sync_API_test.hpp ****     printString(".\n");
 821              		.loc 1 132 5 is_stmt 1
 132:src/../test/ConsumerProducer_CPP_Sync_API_test.hpp ****     printString(".\n");
 822              		.loc 1 132 16 is_stmt 0
 823 0308 17050000 		lla	a0,.LC3
 823      13050500 
 824 0310 97000000 		call	_Z11printStringPKc@plt
 824      E7800000 
 825              	.LVL82:
 132:src/../test/ConsumerProducer_CPP_Sync_API_test.hpp ****     printString(".\n");
 826              		.loc 1 132 41 is_stmt 1
 132:src/../test/ConsumerProducer_CPP_Sync_API_test.hpp ****     printString(".\n");
 827              		.loc 1 132 49 is_stmt 0
 828 0318 13060000 		li	a2,0
 829 031c 9305A000 		li	a1,10
 830 0320 13850400 		mv	a0,s1
 831 0324 97000000 		call	_Z8printIntiii@plt
 831      E7800000 
 832              	.LVL83:
 133:src/../test/ConsumerProducer_CPP_Sync_API_test.hpp **** 
 833              		.loc 1 133 5 is_stmt 1
 133:src/../test/ConsumerProducer_CPP_Sync_API_test.hpp **** 
 834              		.loc 1 133 16 is_stmt 0
 835 032c 17050000 		lla	a0,.LC4
 835      13050500 
 836 0334 97000000 		call	_Z11printStringPKc@plt
 836      E7800000 
 837              	.LVL84:
 135:src/../test/ConsumerProducer_CPP_Sync_API_test.hpp ****         printString("Broj proizvodjaca ne sme biti manji od velicine bafera!\n");
 838              		.loc 1 135 5 is_stmt 1
 839 033c 63C42403 		bgt	s2,s1,.L69
 138:src/../test/ConsumerProducer_CPP_Sync_API_test.hpp ****         printString("Broj proizvodjaca mora biti veci od nula!\n");
 840              		.loc 1 138 12
 841 0340 635C2003 		blez	s2,.L70
 143:src/../test/ConsumerProducer_CPP_Sync_API_test.hpp **** 
GAS LISTING /tmp/ccHwDEnm.s 			page 22


 842              		.loc 1 143 5
 143:src/../test/ConsumerProducer_CPP_Sync_API_test.hpp **** 
 843              		.loc 1 143 40 is_stmt 0
 844 0344 13058003 		li	a0,56
 845 0348 97000000 		call	_Znwm@plt
 845      E7800000 
 846              	.LVL85:
 847              	.LEHE0:
 848 0350 930A0500 		mv	s5,a0
 849 0354 93850400 		mv	a1,s1
 850              	.LEHB1:
 851 0358 97000000 		call	_ZN9BufferCPPC1Ei@plt
 851      E7800000 
 852              	.LVL86:
 853              	.LEHE1:
 854 0360 6F000003 		j	.L71
 855              	.L69:
 136:src/../test/ConsumerProducer_CPP_Sync_API_test.hpp ****         return;
 856              		.loc 1 136 9 is_stmt 1
 136:src/../test/ConsumerProducer_CPP_Sync_API_test.hpp ****         return;
 857              		.loc 1 136 20 is_stmt 0
 858 0364 17050000 		lla	a0,.LC5
 858      13050500 
 859              	.LEHB2:
 860 036c 97000000 		call	_Z11printStringPKc@plt
 860      E7800000 
 861              	.LVL87:
 137:src/../test/ConsumerProducer_CPP_Sync_API_test.hpp ****     } else if (threadNum < 1) {
 862              		.loc 1 137 9 is_stmt 1
 863 0374 6F004001 		j	.L43
 864              	.L70:
 139:src/../test/ConsumerProducer_CPP_Sync_API_test.hpp ****         return;
 865              		.loc 1 139 9
 139:src/../test/ConsumerProducer_CPP_Sync_API_test.hpp ****         return;
 866              		.loc 1 139 20 is_stmt 0
 867 0378 17050000 		lla	a0,.LC6
 867      13050500 
 868 0380 97000000 		call	_Z11printStringPKc@plt
 868      E7800000 
 869              	.LVL88:
 140:src/../test/ConsumerProducer_CPP_Sync_API_test.hpp ****     }
 870              		.loc 1 140 9 is_stmt 1
 871              	.L43:
 872 0388 13810B00 		mv	sp,s7
 873 038c 6F000024 		j	.L41
 874              	.L71:
 875              	.LVL89:
 145:src/../test/ConsumerProducer_CPP_Sync_API_test.hpp **** 
 876              		.loc 1 145 5 discriminator 3
 145:src/../test/ConsumerProducer_CPP_Sync_API_test.hpp **** 
 877              		.loc 1 145 33 is_stmt 0 discriminator 3
 878 0390 13050001 		li	a0,16
 879 0394 97000000 		call	_Znwm@plt
 879      E7800000 
 880              	.LVL90:
 881              	.LEHE2:
 882 039c 93040500 		mv	s1,a0
GAS LISTING /tmp/ccHwDEnm.s 			page 23


 883              	.LVL91:
 884 03a0 93050000 		li	a1,0
 885              	.LEHB3:
 886 03a4 97000000 		call	_ZN9SemaphoreC1Ej@plt
 886      E7800000 
 887              	.LVL92:
 888              	.LEHE3:
 145:src/../test/ConsumerProducer_CPP_Sync_API_test.hpp **** 
 889              		.loc 1 145 16 discriminator 3
 890 03ac 17070000 		lla	a4,.LANCHOR0
 890      13070700 
 891 03b4 23349700 		sd	s1,8(a4)
 147:src/../test/ConsumerProducer_CPP_Sync_API_test.hpp ****     Thread* consumerThread;
 892              		.loc 1 147 5 is_stmt 1 discriminator 3
 893              	.LVL93:
 147:src/../test/ConsumerProducer_CPP_Sync_API_test.hpp ****     Thread* consumerThread;
 894              		.loc 1 147 13 is_stmt 0 discriminator 3
 895 03b8 93173900 		slli	a5,s2,3
 896 03bc 9387F700 		addi	a5,a5,15
 897 03c0 93F707FF 		andi	a5,a5,-16
 898 03c4 3301F140 		sub	sp,sp,a5
 899 03c8 93090100 		mv	s3,sp
 900              	.LVL94:
 148:src/../test/ConsumerProducer_CPP_Sync_API_test.hpp **** 
 901              		.loc 1 148 5 is_stmt 1 discriminator 3
 150:src/../test/ConsumerProducer_CPP_Sync_API_test.hpp **** 
 902              		.loc 1 150 5 discriminator 3
 150:src/../test/ConsumerProducer_CPP_Sync_API_test.hpp **** 
 903              		.loc 1 150 39 is_stmt 0 discriminator 3
 904 03cc 9B061900 		addiw	a3,s2,1
 905              	.LVL95:
 150:src/../test/ConsumerProducer_CPP_Sync_API_test.hpp **** 
 906              		.loc 1 150 24 discriminator 3
 907 03d0 93971600 		slli	a5,a3,1
 908 03d4 B387D700 		add	a5,a5,a3
 909 03d8 93973700 		slli	a5,a5,3
 910 03dc 9387F700 		addi	a5,a5,15
 911 03e0 93F707FF 		andi	a5,a5,-16
 912 03e4 3301F140 		sub	sp,sp,a5
 913              	.LVL96:
 914 03e8 130A0100 		mv	s4,sp
 915              	.LVL97:
 152:src/../test/ConsumerProducer_CPP_Sync_API_test.hpp ****     data[threadNum].buffer = buffer;
 916              		.loc 1 152 5 is_stmt 1 discriminator 3
 152:src/../test/ConsumerProducer_CPP_Sync_API_test.hpp ****     data[threadNum].buffer = buffer;
 917              		.loc 1 152 24 is_stmt 0 discriminator 3
 918 03ec 93141900 		slli	s1,s2,1
 919 03f0 B3872401 		add	a5,s1,s2
 920 03f4 93973700 		slli	a5,a5,3
 921 03f8 B307FA00 		add	a5,s4,a5
 922 03fc 23A02701 		sw	s2,0(a5)
 153:src/../test/ConsumerProducer_CPP_Sync_API_test.hpp ****     data[threadNum].wait = waitForAll;
 923              		.loc 1 153 5 is_stmt 1 discriminator 3
 153:src/../test/ConsumerProducer_CPP_Sync_API_test.hpp ****     data[threadNum].wait = waitForAll;
 924              		.loc 1 153 28 is_stmt 0 discriminator 3
 925 0400 23B45701 		sd	s5,8(a5)
 154:src/../test/ConsumerProducer_CPP_Sync_API_test.hpp ****     consumerThread = new Consumer(data+threadNum);
GAS LISTING /tmp/ccHwDEnm.s 			page 24


 926              		.loc 1 154 5 is_stmt 1 discriminator 3
 154:src/../test/ConsumerProducer_CPP_Sync_API_test.hpp ****     consumerThread = new Consumer(data+threadNum);
 927              		.loc 1 154 26 is_stmt 0 discriminator 3
 928 0404 03378700 		ld	a4,8(a4)
 929 0408 23B8E700 		sd	a4,16(a5)
 155:src/../test/ConsumerProducer_CPP_Sync_API_test.hpp ****     consumerThread->start();
 930              		.loc 1 155 5 is_stmt 1 discriminator 3
 155:src/../test/ConsumerProducer_CPP_Sync_API_test.hpp ****     consumerThread->start();
 931              		.loc 1 155 49 is_stmt 0 discriminator 3
 932 040c 13058001 		li	a0,24
 933              	.LEHB4:
 934 0410 97000000 		call	_Znwm@plt
 934      E7800000 
 935              	.LVL98:
 936              	.LEHE4:
 937 0418 130B0500 		mv	s6,a0
 155:src/../test/ConsumerProducer_CPP_Sync_API_test.hpp ****     consumerThread->start();
 938              		.loc 1 155 39 discriminator 3
 939 041c B3842401 		add	s1,s1,s2
 940 0420 93943400 		slli	s1,s1,3
 155:src/../test/ConsumerProducer_CPP_Sync_API_test.hpp ****     consumerThread->start();
 941              		.loc 1 155 49 discriminator 3
 942 0424 B3049A00 		add	s1,s4,s1
 943              	.LVL99:
 944              	.LEHB5:
 945              	.LBB35:
 946              	.LBB36:
  84:src/../test/ConsumerProducer_CPP_Sync_API_test.hpp **** 
 947              		.loc 1 84 48 discriminator 3
 948 0428 97000000 		call	_ZN6ThreadC2Ev@plt
 948      E7800000 
 949              	.LVL100:
 950              	.LEHE5:
  84:src/../test/ConsumerProducer_CPP_Sync_API_test.hpp **** 
 951              		.loc 1 84 48
 952 0430 97070000 		lla	a5,_ZTV8Consumer+16
 952      93870700 
 953 0438 2330FB00 		sd	a5,0(s6)
 954 043c 23389B00 		sd	s1,16(s6)
 955              	.LVL101:
 956              	.LBE36:
 957              	.LBE35:
 156:src/../test/ConsumerProducer_CPP_Sync_API_test.hpp **** 
 958              		.loc 1 156 5 is_stmt 1
 156:src/../test/ConsumerProducer_CPP_Sync_API_test.hpp **** 
 959              		.loc 1 156 26 is_stmt 0
 960 0440 13050B00 		mv	a0,s6
 961              	.LEHB6:
 962 0444 97000000 		call	_ZN6Thread5startEv@plt
 962      E7800000 
 963              	.LVL102:
 964              	.LBB37:
 158:src/../test/ConsumerProducer_CPP_Sync_API_test.hpp ****         data[i].id = i;
 965              		.loc 1 158 14
 966 044c 93040000 		li	s1,0
 967 0450 6F008003 		j	.L48
 968              	.LVL103:
GAS LISTING /tmp/ccHwDEnm.s 			page 25


 969              	.L72:
 970              	.LBB38:
 971              	.LBB39:
  57:src/../test/ConsumerProducer_CPP_Sync_API_test.hpp **** 
 972              		.loc 1 57 48
 973 0454 97070000 		lla	a5,_ZTV8Producer+16
 973      93870700 
 974 045c 23B0FC00 		sd	a5,0(s9)
 975 0460 23B88C01 		sd	s8,16(s9)
 976              	.LVL104:
 977              	.LBE39:
 978              	.LBE38:
 164:src/../test/ConsumerProducer_CPP_Sync_API_test.hpp ****         } else {
 979              		.loc 1 164 24
 980 0464 93973400 		slli	a5,s1,3
 981 0468 B387F900 		add	a5,s3,a5
 982 046c 23B09701 		sd	s9,0(a5)
 983              	.L47:
 169:src/../test/ConsumerProducer_CPP_Sync_API_test.hpp ****     }
 984              		.loc 1 169 9 is_stmt 1
 169:src/../test/ConsumerProducer_CPP_Sync_API_test.hpp ****     }
 985              		.loc 1 169 18 is_stmt 0
 986 0470 93973400 		slli	a5,s1,3
 987 0474 B387F900 		add	a5,s3,a5
 169:src/../test/ConsumerProducer_CPP_Sync_API_test.hpp ****     }
 988              		.loc 1 169 26
 989 0478 03B50700 		ld	a0,0(a5)
 990 047c 97000000 		call	_ZN6Thread5startEv@plt
 990      E7800000 
 991              	.LVL105:
 158:src/../test/ConsumerProducer_CPP_Sync_API_test.hpp ****         data[i].id = i;
 992              		.loc 1 158 5 is_stmt 1
 993 0484 9B841400 		addiw	s1,s1,1
 994              	.LVL106:
 995              	.L48:
 158:src/../test/ConsumerProducer_CPP_Sync_API_test.hpp ****         data[i].id = i;
 996              		.loc 1 158 23 discriminator 1
 997 0488 63D0240B 		bge	s1,s2,.L45
 159:src/../test/ConsumerProducer_CPP_Sync_API_test.hpp ****         data[i].buffer = buffer;
 998              		.loc 1 159 9
 159:src/../test/ConsumerProducer_CPP_Sync_API_test.hpp ****         data[i].buffer = buffer;
 999              		.loc 1 159 20 is_stmt 0
 1000 048c 93971400 		slli	a5,s1,1
 1001 0490 B3879700 		add	a5,a5,s1
 1002 0494 93973700 		slli	a5,a5,3
 1003 0498 B307FA00 		add	a5,s4,a5
 1004 049c 23A09700 		sw	s1,0(a5)
 160:src/../test/ConsumerProducer_CPP_Sync_API_test.hpp ****         data[i].wait = waitForAll;
 1005              		.loc 1 160 9 is_stmt 1
 160:src/../test/ConsumerProducer_CPP_Sync_API_test.hpp ****         data[i].wait = waitForAll;
 1006              		.loc 1 160 24 is_stmt 0
 1007 04a0 23B45701 		sd	s5,8(a5)
 161:src/../test/ConsumerProducer_CPP_Sync_API_test.hpp **** 
 1008              		.loc 1 161 9 is_stmt 1
 161:src/../test/ConsumerProducer_CPP_Sync_API_test.hpp **** 
 1009              		.loc 1 161 22 is_stmt 0
 1010 04a4 17070000 		ld	a4,.LANCHOR0+8
GAS LISTING /tmp/ccHwDEnm.s 			page 26


 1010      03370700 
 1011 04ac 23B8E700 		sd	a4,16(a5)
 163:src/../test/ConsumerProducer_CPP_Sync_API_test.hpp ****             threads[i] = new Producer(data+i);
 1012              		.loc 1 163 9 is_stmt 1
 1013 04b0 63589002 		blez	s1,.L46
 164:src/../test/ConsumerProducer_CPP_Sync_API_test.hpp ****         } else {
 1014              		.loc 1 164 13
 164:src/../test/ConsumerProducer_CPP_Sync_API_test.hpp ****         } else {
 1015              		.loc 1 164 45 is_stmt 0
 1016 04b4 13058001 		li	a0,24
 1017 04b8 97000000 		call	_Znwm@plt
 1017      E7800000 
 1018              	.LVL107:
 1019              	.LEHE6:
 1020 04c0 930C0500 		mv	s9,a0
 164:src/../test/ConsumerProducer_CPP_Sync_API_test.hpp ****         } else {
 1021              		.loc 1 164 43
 1022 04c4 139C1400 		slli	s8,s1,1
 1023 04c8 330C9C00 		add	s8,s8,s1
 1024 04cc 131C3C00 		slli	s8,s8,3
 164:src/../test/ConsumerProducer_CPP_Sync_API_test.hpp ****         } else {
 1025              		.loc 1 164 45
 1026 04d0 330C8A01 		add	s8,s4,s8
 1027              	.LVL108:
 1028              	.LEHB7:
 1029              	.LBB41:
 1030              	.LBB40:
  57:src/../test/ConsumerProducer_CPP_Sync_API_test.hpp **** 
 1031              		.loc 1 57 48
 1032 04d4 97000000 		call	_ZN6ThreadC2Ev@plt
 1032      E7800000 
 1033              	.LVL109:
 1034              	.LEHE7:
 1035 04dc 6FF09FF7 		j	.L72
 1036              	.LVL110:
 1037              	.L46:
 1038              	.LBE40:
 1039              	.LBE41:
 166:src/../test/ConsumerProducer_CPP_Sync_API_test.hpp ****         }
 1040              		.loc 1 166 13 is_stmt 1
 166:src/../test/ConsumerProducer_CPP_Sync_API_test.hpp ****         }
 1041              		.loc 1 166 53 is_stmt 0
 1042 04e0 13058001 		li	a0,24
 1043              	.LEHB8:
 1044 04e4 97000000 		call	_Znwm@plt
 1044      E7800000 
 1045              	.LVL111:
 1046              	.LEHE8:
 1047 04ec 930C0500 		mv	s9,a0
 166:src/../test/ConsumerProducer_CPP_Sync_API_test.hpp ****         }
 1048              		.loc 1 166 51
 1049 04f0 139C1400 		slli	s8,s1,1
 1050 04f4 330C9C00 		add	s8,s8,s1
 1051 04f8 131C3C00 		slli	s8,s8,3
 166:src/../test/ConsumerProducer_CPP_Sync_API_test.hpp ****         }
 1052              		.loc 1 166 53
 1053 04fc 330C8A01 		add	s8,s4,s8
GAS LISTING /tmp/ccHwDEnm.s 			page 27


 1054              	.LVL112:
 1055              	.LEHB9:
 1056              	.LBB42:
 1057              	.LBB43:
  26:src/../test/ConsumerProducer_CPP_Sync_API_test.hpp **** 
 1058              		.loc 1 26 56
 1059 0500 97000000 		call	_ZN6ThreadC2Ev@plt
 1059      E7800000 
 1060              	.LVL113:
 1061              	.LEHE9:
 1062 0508 97070000 		lla	a5,_ZTV16ProducerKeyboard+16
 1062      93870700 
 1063 0510 23B0FC00 		sd	a5,0(s9)
 1064 0514 23B88C01 		sd	s8,16(s9)
 1065              	.LVL114:
 1066              	.LBE43:
 1067              	.LBE42:
 166:src/../test/ConsumerProducer_CPP_Sync_API_test.hpp ****         }
 1068              		.loc 1 166 24
 1069 0518 93973400 		slli	a5,s1,3
 1070 051c B387F900 		add	a5,s3,a5
 1071 0520 23B09701 		sd	s9,0(a5)
 1072 0524 6FF0DFF4 		j	.L47
 1073              	.L45:
 1074              	.LBE37:
 172:src/../test/ConsumerProducer_CPP_Sync_API_test.hpp **** 
 1075              		.loc 1 172 5 is_stmt 1
 1076              	.LEHB10:
 172:src/../test/ConsumerProducer_CPP_Sync_API_test.hpp **** 
 1077              		.loc 1 172 21 is_stmt 0
 1078 0528 97000000 		call	_ZN6Thread8dispatchEv@plt
 1078      E7800000 
 1079              	.LVL115:
 1080              	.LBB44:
 174:src/../test/ConsumerProducer_CPP_Sync_API_test.hpp ****         waitForAll->wait();
 1081              		.loc 1 174 14
 1082 0530 93040000 		li	s1,0
 1083              	.LVL116:
 1084              	.L50:
 174:src/../test/ConsumerProducer_CPP_Sync_API_test.hpp ****         waitForAll->wait();
 1085              		.loc 1 174 23 is_stmt 1 discriminator 1
 1086 0534 634E9900 		bgt	s1,s2,.L62
 175:src/../test/ConsumerProducer_CPP_Sync_API_test.hpp ****     }
 1087              		.loc 1 175 9
 175:src/../test/ConsumerProducer_CPP_Sync_API_test.hpp ****     }
 1088              		.loc 1 175 25 is_stmt 0
 1089 0538 17050000 		ld	a0,.LANCHOR0+8
 1089      03350500 
 1090 0540 97000000 		call	_ZN9Semaphore4waitEv@plt
 1090      E7800000 
 1091              	.LVL117:
 174:src/../test/ConsumerProducer_CPP_Sync_API_test.hpp ****         waitForAll->wait();
 1092              		.loc 1 174 5 is_stmt 1
 1093 0548 9B841400 		addiw	s1,s1,1
 1094              	.LVL118:
 1095 054c 6FF09FFE 		j	.L50
 1096              	.LVL119:
GAS LISTING /tmp/ccHwDEnm.s 			page 28


 1097              	.L62:
 1098              	.LBE44:
 1099              	.LBB45:
 178:src/../test/ConsumerProducer_CPP_Sync_API_test.hpp ****         delete threads[i];
 1100              		.loc 1 178 14 is_stmt 0
 1101 0550 93040000 		li	s1,0
 1102              	.LVL120:
 1103 0554 6F008000 		j	.L49
 1104              	.LVL121:
 1105              	.L52:
 178:src/../test/ConsumerProducer_CPP_Sync_API_test.hpp ****         delete threads[i];
 1106              		.loc 1 178 5 is_stmt 1 discriminator 2
 1107 0558 9B841400 		addiw	s1,s1,1
 1108              	.LVL122:
 1109              	.L49:
 178:src/../test/ConsumerProducer_CPP_Sync_API_test.hpp ****         delete threads[i];
 1110              		.loc 1 178 23 discriminator 1
 1111 055c 63D22403 		bge	s1,s2,.L51
 179:src/../test/ConsumerProducer_CPP_Sync_API_test.hpp ****     }
 1112              		.loc 1 179 9
 179:src/../test/ConsumerProducer_CPP_Sync_API_test.hpp ****     }
 1113              		.loc 1 179 25 is_stmt 0
 1114 0560 93973400 		slli	a5,s1,3
 1115 0564 B387F900 		add	a5,s3,a5
 1116 0568 03B50700 		ld	a0,0(a5)
 179:src/../test/ConsumerProducer_CPP_Sync_API_test.hpp ****     }
 1117              		.loc 1 179 26
 1118 056c E30605FE 		beqz	a0,.L52
 179:src/../test/ConsumerProducer_CPP_Sync_API_test.hpp ****     }
 1119              		.loc 1 179 25 discriminator 1
 1120 0570 83370500 		ld	a5,0(a0)
 1121 0574 83B78700 		ld	a5,8(a5)
 1122 0578 E7800700 		jalr	a5
 1123              	.LVL123:
 1124 057c 6FF0DFFD 		j	.L52
 1125              	.L51:
 1126              	.LBE45:
 181:src/../test/ConsumerProducer_CPP_Sync_API_test.hpp ****     delete waitForAll;
 1127              		.loc 1 181 5 is_stmt 1
 181:src/../test/ConsumerProducer_CPP_Sync_API_test.hpp ****     delete waitForAll;
 1128              		.loc 1 181 26 is_stmt 0
 1129 0580 630A0B00 		beqz	s6,.L53
 181:src/../test/ConsumerProducer_CPP_Sync_API_test.hpp ****     delete waitForAll;
 1130              		.loc 1 181 12 discriminator 1
 1131 0584 83370B00 		ld	a5,0(s6)
 1132 0588 83B78700 		ld	a5,8(a5)
 1133 058c 13050B00 		mv	a0,s6
 1134 0590 E7800700 		jalr	a5
 1135              	.LVL124:
 1136              	.L53:
 182:src/../test/ConsumerProducer_CPP_Sync_API_test.hpp ****     delete buffer;
 1137              		.loc 1 182 5 is_stmt 1
 182:src/../test/ConsumerProducer_CPP_Sync_API_test.hpp ****     delete buffer;
 1138              		.loc 1 182 12 is_stmt 0
 1139 0594 17050000 		ld	a0,.LANCHOR0+8
 1139      03350500 
 182:src/../test/ConsumerProducer_CPP_Sync_API_test.hpp ****     delete buffer;
GAS LISTING /tmp/ccHwDEnm.s 			page 29


 1140              		.loc 1 182 22
 1141 059c 63080500 		beqz	a0,.L54
 182:src/../test/ConsumerProducer_CPP_Sync_API_test.hpp ****     delete buffer;
 1142              		.loc 1 182 12 discriminator 1
 1143 05a0 83370500 		ld	a5,0(a0)
 1144 05a4 83B78700 		ld	a5,8(a5)
 1145 05a8 E7800700 		jalr	a5
 1146              	.LVL125:
 1147              	.L54:
 1148              		.loc 1 183 5 is_stmt 1
 1149              		.loc 1 183 18 is_stmt 0
 1150 05ac 638E0A00 		beqz	s5,.L55
 1151              		.loc 1 183 12 discriminator 1
 1152 05b0 13850A00 		mv	a0,s5
 1153 05b4 97000000 		call	_ZN9BufferCPPD1Ev@plt
 1153      E7800000 
 1154              	.LVL126:
 1155 05bc 13850A00 		mv	a0,s5
 1156 05c0 97000000 		call	_ZdlPv@plt
 1156      E7800000 
 1157              	.LVL127:
 1158              	.LEHE10:
 1159              	.L55:
 1160 05c8 13810B00 		mv	sp,s7
 1161              	.LVL128:
 1162              	.L41:
 184:src/../test/ConsumerProducer_CPP_Sync_API_test.hpp **** 
 185:src/../test/ConsumerProducer_CPP_Sync_API_test.hpp **** }
 1163              		.loc 1 185 1
 1164 05cc 130104F8 		addi	sp,s0,-128
 1165              		.cfi_remember_state
 1166              		.cfi_def_cfa 2, 128
 1167 05d0 83308107 		ld	ra,120(sp)
 1168              		.cfi_restore 1
 1169 05d4 03340107 		ld	s0,112(sp)
 1170              		.cfi_restore 8
 1171 05d8 83348106 		ld	s1,104(sp)
 1172              		.cfi_restore 9
 1173 05dc 03390106 		ld	s2,96(sp)
 1174              		.cfi_restore 18
 1175              	.LVL129:
 1176 05e0 83398105 		ld	s3,88(sp)
 1177              		.cfi_restore 19
 1178 05e4 033A0105 		ld	s4,80(sp)
 1179              		.cfi_restore 20
 1180 05e8 833A8104 		ld	s5,72(sp)
 1181              		.cfi_restore 21
 1182 05ec 033B0104 		ld	s6,64(sp)
 1183              		.cfi_restore 22
 1184 05f0 833B8103 		ld	s7,56(sp)
 1185              		.cfi_restore 23
 1186 05f4 033C0103 		ld	s8,48(sp)
 1187              		.cfi_restore 24
 1188 05f8 833C8102 		ld	s9,40(sp)
 1189              		.cfi_restore 25
 1190 05fc 13010108 		addi	sp,sp,128
 1191              		.cfi_def_cfa_offset 0
GAS LISTING /tmp/ccHwDEnm.s 			page 30


 1192 0600 67800000 		jr	ra
 1193              	.LVL130:
 1194              	.L63:
 1195              		.cfi_restore_state
 1196 0604 93040500 		mv	s1,a0
 1197              	.LVL131:
 143:src/../test/ConsumerProducer_CPP_Sync_API_test.hpp **** 
 1198              		.loc 1 143 40
 1199 0608 13850A00 		mv	a0,s5
 1200 060c 97000000 		call	_ZdlPv@plt
 1200      E7800000 
 1201              	.LVL132:
 1202 0614 13850400 		mv	a0,s1
 1203              	.LEHB11:
 1204 0618 97000000 		call	_Unwind_Resume@plt
 1204      E7800000 
 1205              	.LVL133:
 1206              	.LEHE11:
 1207              	.L64:
 1208 0620 13090500 		mv	s2,a0
 1209              	.LVL134:
 145:src/../test/ConsumerProducer_CPP_Sync_API_test.hpp **** 
 1210              		.loc 1 145 33
 1211 0624 13850400 		mv	a0,s1
 1212 0628 97000000 		call	_ZdlPv@plt
 1212      E7800000 
 1213              	.LVL135:
 1214 0630 13050900 		mv	a0,s2
 1215              	.LEHB12:
 1216 0634 97000000 		call	_Unwind_Resume@plt
 1216      E7800000 
 1217              	.LVL136:
 1218              	.LEHE12:
 1219              	.L65:
 1220 063c 93040500 		mv	s1,a0
 1221              	.LVL137:
 155:src/../test/ConsumerProducer_CPP_Sync_API_test.hpp ****     consumerThread->start();
 1222              		.loc 1 155 49
 1223 0640 13050B00 		mv	a0,s6
 1224 0644 97000000 		call	_ZdlPv@plt
 1224      E7800000 
 1225              	.LVL138:
 1226 064c 13850400 		mv	a0,s1
 1227              	.LEHB13:
 1228 0650 97000000 		call	_Unwind_Resume@plt
 1228      E7800000 
 1229              	.LVL139:
 1230              	.LEHE13:
 1231              	.L66:
 1232 0658 93040500 		mv	s1,a0
 1233              	.LVL140:
 1234              	.LBB46:
 164:src/../test/ConsumerProducer_CPP_Sync_API_test.hpp ****         } else {
 1235              		.loc 1 164 45
 1236 065c 13850C00 		mv	a0,s9
 1237 0660 97000000 		call	_ZdlPv@plt
 1237      E7800000 
GAS LISTING /tmp/ccHwDEnm.s 			page 31


 1238              	.LVL141:
 1239 0668 13850400 		mv	a0,s1
 1240              	.LEHB14:
 1241 066c 97000000 		call	_Unwind_Resume@plt
 1241      E7800000 
 1242              	.LVL142:
 1243              	.LEHE14:
 1244              	.L67:
 1245 0674 93040500 		mv	s1,a0
 1246              	.LVL143:
 166:src/../test/ConsumerProducer_CPP_Sync_API_test.hpp ****         }
 1247              		.loc 1 166 53
 1248 0678 13850C00 		mv	a0,s9
 1249 067c 97000000 		call	_ZdlPv@plt
 1249      E7800000 
 1250              	.LVL144:
 1251 0684 13850400 		mv	a0,s1
 1252              	.LEHB15:
 1253 0688 97000000 		call	_Unwind_Resume@plt
 1253      E7800000 
 1254              	.LVL145:
 1255              	.LEHE15:
 1256              	.LBE46:
 1257              		.cfi_endproc
 1258              	.LFE36:
 1259              		.globl	__gxx_personality_v0
 1260              		.section	.gcc_except_table,"a",@progbits
 1261              	.LLSDA36:
 1262 0000 FF       		.byte	0xff
 1263 0001 FF       		.byte	0xff
 1264 0002 03       		.byte	0x3
 1265 0003 D001     		.byte	0xd0,0x1
 1266 0005 00000000 		.4byte	.LEHB0-.LFB36
 1267 0009 00000000 		.4byte	.LEHE0-.LEHB0
 1268 000d 00000000 		.4byte	0
 1269 0011 00       		.byte	0
 1270 0012 00000000 		.4byte	.LEHB1-.LFB36
 1271 0016 00000000 		.4byte	.LEHE1-.LEHB1
 1272 001a 00000000 		.4byte	.L63-.LFB36
 1273 001e 00       		.byte	0
 1274 001f 00000000 		.4byte	.LEHB2-.LFB36
 1275 0023 00000000 		.4byte	.LEHE2-.LEHB2
 1276 0027 00000000 		.4byte	0
 1277 002b 00       		.byte	0
 1278 002c 00000000 		.4byte	.LEHB3-.LFB36
 1279 0030 00000000 		.4byte	.LEHE3-.LEHB3
 1280 0034 00000000 		.4byte	.L64-.LFB36
 1281 0038 00       		.byte	0
 1282 0039 00000000 		.4byte	.LEHB4-.LFB36
 1283 003d 00000000 		.4byte	.LEHE4-.LEHB4
 1284 0041 00000000 		.4byte	0
 1285 0045 00       		.byte	0
 1286 0046 00000000 		.4byte	.LEHB5-.LFB36
 1287 004a 00000000 		.4byte	.LEHE5-.LEHB5
 1288 004e 00000000 		.4byte	.L65-.LFB36
 1289 0052 00       		.byte	0
 1290 0053 00000000 		.4byte	.LEHB6-.LFB36
GAS LISTING /tmp/ccHwDEnm.s 			page 32


 1291 0057 00000000 		.4byte	.LEHE6-.LEHB6
 1292 005b 00000000 		.4byte	0
 1293 005f 00       		.byte	0
 1294 0060 00000000 		.4byte	.LEHB7-.LFB36
 1295 0064 00000000 		.4byte	.LEHE7-.LEHB7
 1296 0068 00000000 		.4byte	.L66-.LFB36
 1297 006c 00       		.byte	0
 1298 006d 00000000 		.4byte	.LEHB8-.LFB36
 1299 0071 00000000 		.4byte	.LEHE8-.LEHB8
 1300 0075 00000000 		.4byte	0
 1301 0079 00       		.byte	0
 1302 007a 00000000 		.4byte	.LEHB9-.LFB36
 1303 007e 00000000 		.4byte	.LEHE9-.LEHB9
 1304 0082 00000000 		.4byte	.L67-.LFB36
 1305 0086 00       		.byte	0
 1306 0087 00000000 		.4byte	.LEHB10-.LFB36
 1307 008b 00000000 		.4byte	.LEHE10-.LEHB10
 1308 008f 00000000 		.4byte	0
 1309 0093 00       		.byte	0
 1310 0094 00000000 		.4byte	.LEHB11-.LFB36
 1311 0098 00000000 		.4byte	.LEHE11-.LEHB11
 1312 009c 00000000 		.4byte	0
 1313 00a0 00       		.byte	0
 1314 00a1 00000000 		.4byte	.LEHB12-.LFB36
 1315 00a5 00000000 		.4byte	.LEHE12-.LEHB12
 1316 00a9 00000000 		.4byte	0
 1317 00ad 00       		.byte	0
 1318 00ae 00000000 		.4byte	.LEHB13-.LFB36
 1319 00b2 00000000 		.4byte	.LEHE13-.LEHB13
 1320 00b6 00000000 		.4byte	0
 1321 00ba 00       		.byte	0
 1322 00bb 00000000 		.4byte	.LEHB14-.LFB36
 1323 00bf 00000000 		.4byte	.LEHE14-.LEHB14
 1324 00c3 00000000 		.4byte	0
 1325 00c7 00       		.byte	0
 1326 00c8 00000000 		.4byte	.LEHB15-.LFB36
 1327 00cc 00000000 		.4byte	.LEHE15-.LEHB15
 1328 00d0 00000000 		.4byte	0
 1329 00d4 00       		.byte	0
 1330              		.text
 1332              		.section	.rodata.str1.8
 1333 00e3 00000000 		.align	3
 1333      00
 1334              	.LC7:
 1335 00e8 7573616F 		.string	"usao u userMain\n"
 1335      20752075 
 1335      7365724D 
 1335      61696E0A 
 1335      00
 1336 00f9 00000000 		.align	3
 1336      000000
 1337              	.LC8:
 1338 0100 7A617672 		.string	"zavrsio userMain\n"
 1338      73696F20 
 1338      75736572 
 1338      4D61696E 
 1338      0A00
GAS LISTING /tmp/ccHwDEnm.s 			page 33


 1339              		.text
 1340              		.align	2
 1341              		.globl	_Z8userMainPv
 1343              	_Z8userMainPv:
 1344              	.LFB37:
 1345              		.file 2 "src/userMain.cpp"
   1:src/userMain.cpp **** //#include "../test/Threads_C_API_test.hpp" // zadatak 2, niti C API i sinhrona promena konteksta
   2:src/userMain.cpp **** //#include "../test/Threads_CPP_API_test.hpp" // zadatak 2., niti CPP API i sinhrona promena kontek
   3:src/userMain.cpp **** 
   4:src/userMain.cpp **** //#include "../test/ConsumerProducer_C_API_test.hpp" // zadatak 3., kompletan C API sa semaforima, 
   5:src/userMain.cpp **** #include "../test/ConsumerProducer_CPP_Sync_API_test.hpp" // zadatak 3., kompletan CPP API sa semaf
   6:src/userMain.cpp **** 
   7:src/userMain.cpp **** //#include "../test/ThreadSleep_C_API_test.hpp" // thread_sleep test C API
   8:src/userMain.cpp **** //#include "../test/ConsumerProducer_CPP_API_test.hpp" // zadatak 4. CPP API i asinhrona promena ko
   9:src/userMain.cpp **** 
  10:src/userMain.cpp **** void userMain(void* arg) {
 1346              		.loc 2 10 26 is_stmt 1
 1347              		.cfi_startproc
 1348              	.LVL146:
 1349 0690 130101FF 		addi	sp,sp,-16
 1350              		.cfi_def_cfa_offset 16
 1351 0694 23341100 		sd	ra,8(sp)
 1352 0698 23308100 		sd	s0,0(sp)
 1353              		.cfi_offset 1, -8
 1354              		.cfi_offset 8, -16
 1355 069c 13040101 		addi	s0,sp,16
 1356              		.cfi_def_cfa 8, 0
  11:src/userMain.cpp ****     printString("usao u userMain\n");
 1357              		.loc 2 11 5
 1358              		.loc 2 11 16 is_stmt 0
 1359 06a0 17050000 		lla	a0,.LC7
 1359      13050500 
 1360              	.LVL147:
 1361 06a8 97000000 		call	_Z11printStringPKc@plt
 1361      E7800000 
 1362              	.LVL148:
  12:src/userMain.cpp ****     //Threads_C_API_test(); // zadatak 2., niti C API i sinhrona promena konteksta
  13:src/userMain.cpp ****     //Threads_CPP_API_test(); // zadatak 2., niti CPP API i sinhrona promena konteksta
  14:src/userMain.cpp **** 
  15:src/userMain.cpp ****     //producerConsumer_C_API(); // zadatak 3., kompletan C API sa semaforima, sinhrona promena kont
  16:src/userMain.cpp ****     producerConsumer_CPP_Sync_API(); // zadatak 3., kompletan CPP API sa semaforima, sinhrona prome
 1363              		.loc 2 16 5 is_stmt 1
 1364              		.loc 2 16 34 is_stmt 0
 1365 06b0 97000000 		call	_Z29producerConsumer_CPP_Sync_APIv
 1365      E7800000 
 1366              	.LVL149:
  17:src/userMain.cpp **** 
  18:src/userMain.cpp ****     //testSleeping(); // thread_sleep test C API
  19:src/userMain.cpp ****     //ConsumerProducerCPP::testConsumerProducer(); // zadatak 4. CPP API i asinhrona promena kontek
  20:src/userMain.cpp ****     printString("zavrsio userMain\n");
 1367              		.loc 2 20 5 is_stmt 1
 1368              		.loc 2 20 16 is_stmt 0
 1369 06b8 17050000 		lla	a0,.LC8
 1369      13050500 
 1370 06c0 97000000 		call	_Z11printStringPKc@plt
 1370      E7800000 
 1371              	.LVL150:
GAS LISTING /tmp/ccHwDEnm.s 			page 34


  21:src/userMain.cpp **** }...
 1372              		.loc 2 21 1
 1373 06c8 83308100 		ld	ra,8(sp)
 1374              		.cfi_restore 1
 1375 06cc 03340100 		ld	s0,0(sp)
 1376              		.cfi_restore 8
 1377              		.cfi_def_cfa 2, 16
 1378 06d0 13010101 		addi	sp,sp,16
 1379              		.cfi_def_cfa_offset 0
 1380 06d4 67800000 		jr	ra
 1381              		.cfi_endproc
 1382              	.LFE37:
 1384              		.weak	_ZTV16ProducerKeyboard
 1385              		.section	.data.rel.ro.local._ZTV16ProducerKeyboard,"awG",@progbits,_ZTV16ProducerKeyboard,comdat
 1386              		.align	3
 1389              	_ZTV16ProducerKeyboard:
 1390 0000 00000000 		.dword	0
 1390      00000000 
 1391 0008 00000000 		.dword	0
 1391      00000000 
 1392 0010 00000000 		.dword	_ZN16ProducerKeyboardD1Ev
 1392      00000000 
 1393 0018 00000000 		.dword	_ZN16ProducerKeyboardD0Ev
 1393      00000000 
 1394 0020 00000000 		.dword	_ZN16ProducerKeyboard3runEv
 1394      00000000 
 1395              		.weak	_ZTV8Producer
 1396              		.section	.data.rel.ro.local._ZTV8Producer,"awG",@progbits,_ZTV8Producer,comdat
 1397              		.align	3
 1400              	_ZTV8Producer:
 1401 0000 00000000 		.dword	0
 1401      00000000 
 1402 0008 00000000 		.dword	0
 1402      00000000 
 1403 0010 00000000 		.dword	_ZN8ProducerD1Ev
 1403      00000000 
 1404 0018 00000000 		.dword	_ZN8ProducerD0Ev
 1404      00000000 
 1405 0020 00000000 		.dword	_ZN8Producer3runEv
 1405      00000000 
 1406              		.weak	_ZTV8Consumer
 1407              		.section	.data.rel.ro.local._ZTV8Consumer,"awG",@progbits,_ZTV8Consumer,comdat
 1408              		.align	3
 1411              	_ZTV8Consumer:
 1412 0000 00000000 		.dword	0
 1412      00000000 
 1413 0008 00000000 		.dword	0
 1413      00000000 
 1414 0010 00000000 		.dword	_ZN8ConsumerD1Ev
 1414      00000000 
 1415 0018 00000000 		.dword	_ZN8ConsumerD0Ev
 1415      00000000 
 1416 0020 00000000 		.dword	_ZN8Consumer3runEv
 1416      00000000 
 1417              		.globl	threadEnd
 1418              		.globl	waitForAll
 1419              		.bss
GAS LISTING /tmp/ccHwDEnm.s 			page 35


 1420              		.align	3
 1421              		.set	.LANCHOR0,. + 0
 1424              	threadEnd:
 1425 0000 00000000 		.zero	4
 1426 0004 00000000 		.zero	4
 1429              	waitForAll:
 1430 0008 00000000 		.zero	8
 1430      00000000 
 1431              		.text
 1432              	.Letext0:
 1433              		.file 3 "src/../test/../h/../lib/hw.h"
 1434              		.file 4 "src/../test/buffer_CPP_API.hpp"
 1435              		.file 5 "src/../test/../h/syscall_cpp.hpp"
 1436              		.file 6 "src/../test/../h/../test/printing.hpp"
 1437              		.file 7 "src/../test/../h/syscall_c.hpp"
 5413              		.align	3
 5416              	DW.ref.__gxx_personality_v0:
 5417 0000 00000000 		.dword	__gxx_personality_v0
 5417      00000000 
 5418              		.ident	"GCC: (Ubuntu 9.4.0-1ubuntu1~20.04) 9.4.0"
 5419              		.section	.note.GNU-stack,"",@progbits
GAS LISTING /tmp/ccHwDEnm.s 			page 36

