GAS LISTING /tmp/ccKQwasl.s 			page 1


   1              		.file	"printingK.cpp"
   2              		.option pic
   3              		.option norelax
   4              		.text
   5              	.Ltext0:
   6              		.align	2
   7              		.globl	_Z12printStringKPKc
   9              	_Z12printStringKPKc:
  10              	.LFB0:
  11              		.file 1 "test/printingK.cpp"
   1:test/printingK.cpp **** //
   2:test/printingK.cpp **** // Created by os on 5/18/22.
   3:test/printingK.cpp **** //
   4:test/printingK.cpp **** 
   5:test/printingK.cpp **** #include "printingK.hpp"
   6:test/printingK.cpp **** #include "../lib/console.h"
   7:test/printingK.cpp **** 
   8:test/printingK.cpp **** uint64 lockPrintK = 0;
   9:test/printingK.cpp **** 
  10:test/printingK.cpp **** #define LOCKK() while(copy_and_swap(lockPrintK, 0, 1))
  11:test/printingK.cpp **** #define UNLOCKK() while(copy_and_swap(lockPrintK, 1, 0))
  12:test/printingK.cpp **** 
  13:test/printingK.cpp **** void printStringK(char const *string)
  14:test/printingK.cpp **** {
  12              		.loc 1 14 1
  13              		.cfi_startproc
  14              	.LVL0:
  15 0000 130101FE 		addi	sp,sp,-32
  16              		.cfi_def_cfa_offset 32
  17 0004 233C1100 		sd	ra,24(sp)
  18 0008 23388100 		sd	s0,16(sp)
  19 000c 23349100 		sd	s1,8(sp)
  20              		.cfi_offset 1, -8
  21              		.cfi_offset 8, -16
  22              		.cfi_offset 9, -24
  23 0010 13040102 		addi	s0,sp,32
  24              		.cfi_def_cfa 8, 0
  25 0014 93040500 		mv	s1,a0
  26              	.LVL1:
  27              	.L2:
  15:test/printingK.cpp ****     LOCKK();
  28              		.loc 1 15 5
  29              		.loc 1 15 5
  30 0018 13061000 		li	a2,1
  31 001c 93050000 		li	a1,0
  32 0020 17050000 		lla	a0,.LANCHOR0
  32      13050500 
  33 0028 97000000 		call	copy_and_swap@plt
  33      E7800000 
  34              	.LVL2:
  35 0030 E31405FE 		bnez	a0,.L2
  36              	.L4:
  16:test/printingK.cpp ****     while (*string != '\0')
  37              		.loc 1 16 5
  38              		.loc 1 16 20
  39              		.loc 1 16 12 is_stmt 0
  40 0034 03C50400 		lbu	a0,0(s1)
GAS LISTING /tmp/ccKQwasl.s 			page 2


  41              		.loc 1 16 20
  42 0038 630A0500 		beqz	a0,.L3
  17:test/printingK.cpp ****     {
  18:test/printingK.cpp ****         __putc(*string);
  43              		.loc 1 18 9 is_stmt 1
  44              		.loc 1 18 15 is_stmt 0
  45 003c 97000000 		call	__putc@plt
  45      E7800000 
  46              	.LVL3:
  19:test/printingK.cpp ****         string++;
  47              		.loc 1 19 9 is_stmt 1
  48              		.loc 1 19 15 is_stmt 0
  49 0044 93841400 		addi	s1,s1,1
  50              	.LVL4:
  16:test/printingK.cpp ****     while (*string != '\0')
  51              		.loc 1 16 5
  52 0048 6FF0DFFE 		j	.L4
  53              	.L3:
  20:test/printingK.cpp ****     }
  21:test/printingK.cpp ****     UNLOCKK();
  54              		.loc 1 21 5 is_stmt 1
  55              		.loc 1 21 5
  56 004c 13060000 		li	a2,0
  57 0050 93051000 		li	a1,1
  58 0054 17050000 		lla	a0,.LANCHOR0
  58      13050500 
  59 005c 97000000 		call	copy_and_swap@plt
  59      E7800000 
  60              	.LVL5:
  61 0064 E31405FE 		bnez	a0,.L3
  22:test/printingK.cpp **** }
  62              		.loc 1 22 1 is_stmt 0
  63 0068 83308101 		ld	ra,24(sp)
  64              		.cfi_restore 1
  65 006c 03340101 		ld	s0,16(sp)
  66              		.cfi_restore 8
  67              		.cfi_def_cfa 2, 32
  68 0070 83348100 		ld	s1,8(sp)
  69              		.cfi_restore 9
  70              	.LVL6:
  71 0074 13010102 		addi	sp,sp,32
  72              		.cfi_def_cfa_offset 0
  73 0078 67800000 		jr	ra
  74              		.cfi_endproc
  75              	.LFE0:
  77              		.align	2
  78              		.globl	_Z9printIntKiii
  80              	_Z9printIntKiii:
  81              	.LFB1:
  23:test/printingK.cpp **** 
  24:test/printingK.cpp **** char digitsK[] = "0123456789ABCDEF";
  25:test/printingK.cpp **** 
  26:test/printingK.cpp **** void printIntK(int xx, int base, int sgn)
  27:test/printingK.cpp **** {
  82              		.loc 1 27 1 is_stmt 1
  83              		.cfi_startproc
  84              	.LVL7:
GAS LISTING /tmp/ccKQwasl.s 			page 3


  85 007c 130101FC 		addi	sp,sp,-64
  86              		.cfi_def_cfa_offset 64
  87 0080 233C1102 		sd	ra,56(sp)
  88 0084 23388102 		sd	s0,48(sp)
  89 0088 23349102 		sd	s1,40(sp)
  90 008c 23302103 		sd	s2,32(sp)
  91 0090 233C3101 		sd	s3,24(sp)
  92              		.cfi_offset 1, -8
  93              		.cfi_offset 8, -16
  94              		.cfi_offset 9, -24
  95              		.cfi_offset 18, -32
  96              		.cfi_offset 19, -40
  97 0094 13040104 		addi	s0,sp,64
  98              		.cfi_def_cfa 8, 0
  99 0098 93040500 		mv	s1,a0
 100 009c 13890500 		mv	s2,a1
 101 00a0 93090600 		mv	s3,a2
 102              	.LVL8:
 103              	.L7:
  28:test/printingK.cpp ****     LOCKK();
 104              		.loc 1 28 5
 105              		.loc 1 28 5
 106 00a4 13061000 		li	a2,1
 107 00a8 93050000 		li	a1,0
 108 00ac 17050000 		lla	a0,.LANCHOR0
 108      13050500 
 109 00b4 97000000 		call	copy_and_swap@plt
 109      E7800000 
 110              	.LVL9:
 111 00bc E31405FE 		bnez	a0,.L7
  29:test/printingK.cpp ****     char buf[16];
 112              		.loc 1 29 5
  30:test/printingK.cpp ****     int i, neg;
 113              		.loc 1 30 5
  31:test/printingK.cpp ****     uint64 x;
 114              		.loc 1 31 5
  32:test/printingK.cpp **** 
  33:test/printingK.cpp ****     neg = 0;
 115              		.loc 1 33 5
 116              	.LVL10:
  34:test/printingK.cpp ****     if(sgn && xx < 0){
 117              		.loc 1 34 5
 118 00c0 63840900 		beqz	s3,.L8
 119              		.loc 1 34 12 is_stmt 0 discriminator 1
 120 00c4 63CE0406 		bltz	s1,.L15
 121              	.L8:
  35:test/printingK.cpp ****         neg = 1;
  36:test/printingK.cpp ****         x = -xx;
  37:test/printingK.cpp ****     } else {
  38:test/printingK.cpp ****         x = xx;
 122              		.loc 1 38 9 is_stmt 1
 123              		.loc 1 38 11 is_stmt 0
 124 00c8 13850400 		mv	a0,s1
 125              	.LVL11:
  33:test/printingK.cpp ****     if(sgn && xx < 0){
 126              		.loc 1 33 9
 127 00cc 13060000 		li	a2,0
GAS LISTING /tmp/ccKQwasl.s 			page 4


 128              	.LVL12:
 129              	.L9:
  39:test/printingK.cpp ****     }
  40:test/printingK.cpp **** 
  41:test/printingK.cpp ****     i = 0;
 130              		.loc 1 41 5 is_stmt 1
 131              		.loc 1 41 7 is_stmt 0
 132 00d0 93040000 		li	s1,0
 133              	.LVL13:
 134              	.L10:
  42:test/printingK.cpp ****     do{
 135              		.loc 1 42 5 is_stmt 1
  43:test/printingK.cpp ****         buf[i++] = digitsK[x % base];
 136              		.loc 1 43 9
 137              		.loc 1 43 30 is_stmt 0
 138 00d4 B3762503 		remu	a3,a0,s2
 139 00d8 13870400 		mv	a4,s1
 140              		.loc 1 43 14
 141 00dc 9B841400 		addiw	s1,s1,1
 142              	.LVL14:
 143              		.loc 1 43 36
 144 00e0 97070000 		lla	a5,.LANCHOR1
 144      93870700 
 145 00e8 B387D700 		add	a5,a5,a3
 146 00ec 83C60700 		lbu	a3,0(a5)
 147              		.loc 1 43 18
 148 00f0 930704FD 		addi	a5,s0,-48
 149 00f4 B387E700 		add	a5,a5,a4
 150 00f8 2388D7FE 		sb	a3,-16(a5)
  44:test/printingK.cpp ****     }while((x /= base) != 0);
 151              		.loc 1 44 24 is_stmt 1
 152 00fc 93070500 		mv	a5,a0
 153              		.loc 1 44 15 is_stmt 0
 154 0100 33552503 		divu	a0,a0,s2
 155              	.LVL15:
 156              		.loc 1 44 24
 157 0104 E3F827FD 		bleu	s2,a5,.L10
  45:test/printingK.cpp ****     if(neg)
 158              		.loc 1 45 5 is_stmt 1
 159 0108 630C0600 		beqz	a2,.L13
  46:test/printingK.cpp ****         buf[i++] = '-';
 160              		.loc 1 46 9
 161              	.LVL16:
 162              		.loc 1 46 18 is_stmt 0
 163 010c 930704FD 		addi	a5,s0,-48
 164 0110 B3849700 		add	s1,a5,s1
 165 0114 9307D002 		li	a5,45
 166 0118 2388F4FE 		sb	a5,-16(s1)
 167              		.loc 1 46 14
 168 011c 9B042700 		addiw	s1,a4,2
 169              	.LVL17:
 170              	.L13:
  47:test/printingK.cpp **** 
  48:test/printingK.cpp ****     while(--i >= 0)
 171              		.loc 1 48 5 is_stmt 1
 172              		.loc 1 48 15
 173 0120 9B84F4FF 		addiw	s1,s1,-1
GAS LISTING /tmp/ccKQwasl.s 			page 5


 174              	.LVL18:
 175 0124 63C40402 		bltz	s1,.L12
  49:test/printingK.cpp ****         __putc(buf[i]);
 176              		.loc 1 49 9
 177              		.loc 1 49 15 is_stmt 0
 178 0128 930704FD 		addi	a5,s0,-48
 179 012c B3879700 		add	a5,a5,s1
 180 0130 03C507FF 		lbu	a0,-16(a5)
 181 0134 97000000 		call	__putc@plt
 181      E7800000 
 182              	.LVL19:
 183 013c 6FF05FFE 		j	.L13
 184              	.LVL20:
 185              	.L15:
  35:test/printingK.cpp ****         x = -xx;
 186              		.loc 1 35 9 is_stmt 1
  36:test/printingK.cpp ****     } else {
 187              		.loc 1 36 9
  36:test/printingK.cpp ****     } else {
 188              		.loc 1 36 13 is_stmt 0
 189 0140 3B059040 		negw	a0,s1
 190              	.LVL21:
  35:test/printingK.cpp ****         x = -xx;
 191              		.loc 1 35 13
 192 0144 13061000 		li	a2,1
  36:test/printingK.cpp ****     } else {
 193              		.loc 1 36 11
 194 0148 6FF09FF8 		j	.L9
 195              	.LVL22:
 196              	.L12:
  50:test/printingK.cpp **** 
  51:test/printingK.cpp ****     UNLOCKK();
 197              		.loc 1 51 5 is_stmt 1
 198              		.loc 1 51 5
 199 014c 13060000 		li	a2,0
 200 0150 93051000 		li	a1,1
 201 0154 17050000 		lla	a0,.LANCHOR0
 201      13050500 
 202 015c 97000000 		call	copy_and_swap@plt
 202      E7800000 
 203              	.LVL23:
 204 0164 E31405FE 		bnez	a0,.L12
  52:test/printingK.cpp **** }...
 205              		.loc 1 52 1 is_stmt 0
 206 0168 83308103 		ld	ra,56(sp)
 207              		.cfi_restore 1
 208 016c 03340103 		ld	s0,48(sp)
 209              		.cfi_restore 8
 210              		.cfi_def_cfa 2, 64
 211 0170 83348102 		ld	s1,40(sp)
 212              		.cfi_restore 9
 213 0174 03390102 		ld	s2,32(sp)
 214              		.cfi_restore 18
 215 0178 83398101 		ld	s3,24(sp)
 216              		.cfi_restore 19
 217 017c 13010104 		addi	sp,sp,64
 218              		.cfi_def_cfa_offset 0
GAS LISTING /tmp/ccKQwasl.s 			page 6


 219 0180 67800000 		jr	ra
 220              		.cfi_endproc
 221              	.LFE1:
 223              		.globl	digitsK
 224              		.globl	lockPrintK
 225              		.data
 226              		.align	3
 227              		.set	.LANCHOR1,. + 0
 230              	digitsK:
 231 0000 30313233 		.string	"0123456789ABCDEF"
 231      34353637 
 231      38394142 
 231      43444546 
 231      00
 232              		.bss
 233              		.align	3
 234              		.set	.LANCHOR0,. + 0
 237              	lockPrintK:
 238 0000 00000000 		.zero	8
 238      00000000 
 239              		.text
 240              	.Letext0:
 241              		.file 2 "test/printingK.hpp"
 242              		.file 3 "test/../lib/console.h"
GAS LISTING /tmp/ccKQwasl.s 			page 7

